SF:/home/tait/Documents/a11y-tree-data/code/indextree-method-structural-nav/src/indextree_ext.rs
FN:61,_RINvXs2_NtCsfw8KLZzEbVr_31indextree_method_structural_nav13indextree_extNtNtCsj3p7DfRND3N_9indextree8traverse8NodeEdgeNtB6_11NodeEdgeExt18next_traverse_roleNtB8_4NodeEB8_
FN:61,_RINvXs2_NtCsfw8KLZzEbVr_31indextree_method_structural_nav13indextree_extNtNtCsj3p7DfRND3N_9indextree8traverse8NodeEdgeNtB6_11NodeEdgeExt18next_traverse_roleNtB8_9NodeCountEB8_
FN:38,_RNCNvXs0_NtCsfw8KLZzEbVr_31indextree_method_structural_nav13indextree_extINtB7_15DescendantsRoleNtB9_4NodeENtNtNtNtCs8eeqTsWlyPc_4core4iter6traits8iterator8Iterator4next0B9_
FN:38,_RNCNvXs0_NtCsfw8KLZzEbVr_31indextree_method_structural_nav13indextree_extINtB7_15DescendantsRoleNtB9_9NodeCountENtNtNtNtCs8eeqTsWlyPc_4core4iter6traits8iterator8Iterator4next0B9_
FN:113,_RNvMs3_NtCsfw8KLZzEbVr_31indextree_method_structural_nav13indextree_extINtB5_12TraverseRoleNtB7_4NodeE12next_of_nextB7_
FN:113,_RNvMs3_NtCsfw8KLZzEbVr_31indextree_method_structural_nav13indextree_extINtB5_12TraverseRoleNtB7_9NodeCountE12next_of_nextB7_
FN:37,_RNvXs0_NtCsfw8KLZzEbVr_31indextree_method_structural_nav13indextree_extINtB5_15DescendantsRoleNtB7_4NodeENtNtNtNtCs8eeqTsWlyPc_4core4iter6traits8iterator8Iterator4nextB7_
FN:37,_RNvXs0_NtCsfw8KLZzEbVr_31indextree_method_structural_nav13indextree_extINtB5_15DescendantsRoleNtB7_9NodeCountENtNtNtNtCs8eeqTsWlyPc_4core4iter6traits8iterator8Iterator4nextB7_
FN:130,_RNvXs4_NtCsfw8KLZzEbVr_31indextree_method_structural_nav13indextree_extINtB5_12TraverseRoleNtB7_4NodeENtNtNtNtCs8eeqTsWlyPc_4core4iter6traits8iterator8Iterator4nextB7_
FN:130,_RNvXs4_NtCsfw8KLZzEbVr_31indextree_method_structural_nav13indextree_extINtB5_12TraverseRoleNtB7_9NodeCountENtNtNtNtCs8eeqTsWlyPc_4core4iter6traits8iterator8Iterator4nextB7_
FN:16,_RINvXNtCsfw8KLZzEbVr_31indextree_method_structural_nav13indextree_extNtNtCsj3p7DfRND3N_9indextree2id6NodeIdNtB3_9NodeIdExt16descendants_roleNtB5_4NodeEB5_
FN:16,_RINvXNtCsfw8KLZzEbVr_31indextree_method_structural_nav13indextree_extNtNtCsj3p7DfRND3N_9indextree2id6NodeIdNtB3_9NodeIdExt16descendants_roleNtB5_9NodeCountEB5_
FN:103,_RNvMs3_NtCsfw8KLZzEbVr_31indextree_method_structural_nav13indextree_extINtB5_12TraverseRoleNtB7_4NodeE3newB7_
FN:103,_RNvMs3_NtCsfw8KLZzEbVr_31indextree_method_structural_nav13indextree_extINtB5_12TraverseRoleNtB7_9NodeCountE3newB7_
FN:26,_RNvMs_NtCsfw8KLZzEbVr_31indextree_method_structural_nav13indextree_extINtB4_15DescendantsRoleNtB6_4NodeE3newB6_
FN:26,_RNvMs_NtCsfw8KLZzEbVr_31indextree_method_structural_nav13indextree_extINtB4_15DescendantsRoleNtB6_9NodeCountE3newB6_
FN:19,_RINvXNtCsfw8KLZzEbVr_31indextree_method_structural_nav13indextree_extNtNtCsj3p7DfRND3N_9indextree2id6NodeIdNtB3_9NodeIdExt13traverse_rolepEB5_
FN:16,_RINvXNtCs22gWgzn6ZqV_31indextree_method_structural_nav13indextree_extNtNtCsj3p7DfRND3N_9indextree2id6NodeIdNtB3_9NodeIdExt16descendants_roleNtB5_4NodeEB5_
FN:16,_RINvXNtCs22gWgzn6ZqV_31indextree_method_structural_nav13indextree_extNtNtCsj3p7DfRND3N_9indextree2id6NodeIdNtB3_9NodeIdExt16descendants_roleNtB5_9NodeCountEB5_
FN:103,_RNvMs3_NtCs22gWgzn6ZqV_31indextree_method_structural_nav13indextree_extINtB5_12TraverseRoleNtB7_4NodeE3newB7_
FN:103,_RNvMs3_NtCs22gWgzn6ZqV_31indextree_method_structural_nav13indextree_extINtB5_12TraverseRoleNtB7_9NodeCountE3newB7_
FN:26,_RNvMs_NtCs22gWgzn6ZqV_31indextree_method_structural_nav13indextree_extINtB4_15DescendantsRoleNtB6_4NodeE3newB6_
FN:26,_RNvMs_NtCs22gWgzn6ZqV_31indextree_method_structural_nav13indextree_extINtB4_15DescendantsRoleNtB6_9NodeCountE3newB6_
FN:61,_RINvXs2_NtCs22gWgzn6ZqV_31indextree_method_structural_nav13indextree_extNtNtCsj3p7DfRND3N_9indextree8traverse8NodeEdgeNtB6_11NodeEdgeExt18next_traverse_roleNtB8_4NodeEB8_
FN:61,_RINvXs2_NtCs22gWgzn6ZqV_31indextree_method_structural_nav13indextree_extNtNtCsj3p7DfRND3N_9indextree8traverse8NodeEdgeNtB6_11NodeEdgeExt18next_traverse_roleNtB8_9NodeCountEB8_
FN:38,_RNCNvXs0_NtCs22gWgzn6ZqV_31indextree_method_structural_nav13indextree_extINtB7_15DescendantsRoleNtB9_4NodeENtNtNtNtCs8eeqTsWlyPc_4core4iter6traits8iterator8Iterator4next0B9_
FN:38,_RNCNvXs0_NtCs22gWgzn6ZqV_31indextree_method_structural_nav13indextree_extINtB7_15DescendantsRoleNtB9_9NodeCountENtNtNtNtCs8eeqTsWlyPc_4core4iter6traits8iterator8Iterator4next0B9_
FN:113,_RNvMs3_NtCs22gWgzn6ZqV_31indextree_method_structural_nav13indextree_extINtB5_12TraverseRoleNtB7_4NodeE12next_of_nextB7_
FN:113,_RNvMs3_NtCs22gWgzn6ZqV_31indextree_method_structural_nav13indextree_extINtB5_12TraverseRoleNtB7_9NodeCountE12next_of_nextB7_
FN:37,_RNvXs0_NtCs22gWgzn6ZqV_31indextree_method_structural_nav13indextree_extINtB5_15DescendantsRoleNtB7_4NodeENtNtNtNtCs8eeqTsWlyPc_4core4iter6traits8iterator8Iterator4nextB7_
FN:37,_RNvXs0_NtCs22gWgzn6ZqV_31indextree_method_structural_nav13indextree_extINtB5_15DescendantsRoleNtB7_9NodeCountENtNtNtNtCs8eeqTsWlyPc_4core4iter6traits8iterator8Iterator4nextB7_
FN:130,_RNvXs4_NtCs22gWgzn6ZqV_31indextree_method_structural_nav13indextree_extINtB5_12TraverseRoleNtB7_4NodeENtNtNtNtCs8eeqTsWlyPc_4core4iter6traits8iterator8Iterator4nextB7_
FN:130,_RNvXs4_NtCs22gWgzn6ZqV_31indextree_method_structural_nav13indextree_extINtB5_12TraverseRoleNtB7_9NodeCountENtNtNtNtCs8eeqTsWlyPc_4core4iter6traits8iterator8Iterator4nextB7_
FN:19,_RINvXNtCs22gWgzn6ZqV_31indextree_method_structural_nav13indextree_extNtNtCsj3p7DfRND3N_9indextree2id6NodeIdNtB3_9NodeIdExt13traverse_rolepEB5_
FNDA:0,_RINvXs2_NtCsfw8KLZzEbVr_31indextree_method_structural_nav13indextree_extNtNtCsj3p7DfRND3N_9indextree8traverse8NodeEdgeNtB6_11NodeEdgeExt18next_traverse_roleNtB8_4NodeEB8_
FNDA:0,_RINvXs2_NtCsfw8KLZzEbVr_31indextree_method_structural_nav13indextree_extNtNtCsj3p7DfRND3N_9indextree8traverse8NodeEdgeNtB6_11NodeEdgeExt18next_traverse_roleNtB8_9NodeCountEB8_
FNDA:0,_RNCNvXs0_NtCsfw8KLZzEbVr_31indextree_method_structural_nav13indextree_extINtB7_15DescendantsRoleNtB9_4NodeENtNtNtNtCs8eeqTsWlyPc_4core4iter6traits8iterator8Iterator4next0B9_
FNDA:0,_RNCNvXs0_NtCsfw8KLZzEbVr_31indextree_method_structural_nav13indextree_extINtB7_15DescendantsRoleNtB9_9NodeCountENtNtNtNtCs8eeqTsWlyPc_4core4iter6traits8iterator8Iterator4next0B9_
FNDA:0,_RNvMs3_NtCsfw8KLZzEbVr_31indextree_method_structural_nav13indextree_extINtB5_12TraverseRoleNtB7_4NodeE12next_of_nextB7_
FNDA:0,_RNvMs3_NtCsfw8KLZzEbVr_31indextree_method_structural_nav13indextree_extINtB5_12TraverseRoleNtB7_9NodeCountE12next_of_nextB7_
FNDA:0,_RNvXs0_NtCsfw8KLZzEbVr_31indextree_method_structural_nav13indextree_extINtB5_15DescendantsRoleNtB7_4NodeENtNtNtNtCs8eeqTsWlyPc_4core4iter6traits8iterator8Iterator4nextB7_
FNDA:0,_RNvXs0_NtCsfw8KLZzEbVr_31indextree_method_structural_nav13indextree_extINtB5_15DescendantsRoleNtB7_9NodeCountENtNtNtNtCs8eeqTsWlyPc_4core4iter6traits8iterator8Iterator4nextB7_
FNDA:0,_RNvXs4_NtCsfw8KLZzEbVr_31indextree_method_structural_nav13indextree_extINtB5_12TraverseRoleNtB7_4NodeENtNtNtNtCs8eeqTsWlyPc_4core4iter6traits8iterator8Iterator4nextB7_
FNDA:0,_RNvXs4_NtCsfw8KLZzEbVr_31indextree_method_structural_nav13indextree_extINtB5_12TraverseRoleNtB7_9NodeCountENtNtNtNtCs8eeqTsWlyPc_4core4iter6traits8iterator8Iterator4nextB7_
FNDA:0,_RINvXNtCsfw8KLZzEbVr_31indextree_method_structural_nav13indextree_extNtNtCsj3p7DfRND3N_9indextree2id6NodeIdNtB3_9NodeIdExt16descendants_roleNtB5_4NodeEB5_
FNDA:0,_RINvXNtCsfw8KLZzEbVr_31indextree_method_structural_nav13indextree_extNtNtCsj3p7DfRND3N_9indextree2id6NodeIdNtB3_9NodeIdExt16descendants_roleNtB5_9NodeCountEB5_
FNDA:0,_RNvMs3_NtCsfw8KLZzEbVr_31indextree_method_structural_nav13indextree_extINtB5_12TraverseRoleNtB7_4NodeE3newB7_
FNDA:0,_RNvMs3_NtCsfw8KLZzEbVr_31indextree_method_structural_nav13indextree_extINtB5_12TraverseRoleNtB7_9NodeCountE3newB7_
FNDA:0,_RNvMs_NtCsfw8KLZzEbVr_31indextree_method_structural_nav13indextree_extINtB4_15DescendantsRoleNtB6_4NodeE3newB6_
FNDA:0,_RNvMs_NtCsfw8KLZzEbVr_31indextree_method_structural_nav13indextree_extINtB4_15DescendantsRoleNtB6_9NodeCountE3newB6_
FNDA:0,_RINvXNtCsfw8KLZzEbVr_31indextree_method_structural_nav13indextree_extNtNtCsj3p7DfRND3N_9indextree2id6NodeIdNtB3_9NodeIdExt13traverse_rolepEB5_
FNDA:260,_RINvXNtCs22gWgzn6ZqV_31indextree_method_structural_nav13indextree_extNtNtCsj3p7DfRND3N_9indextree2id6NodeIdNtB3_9NodeIdExt16descendants_roleNtB5_4NodeEB5_
FNDA:260,_RINvXNtCs22gWgzn6ZqV_31indextree_method_structural_nav13indextree_extNtNtCsj3p7DfRND3N_9indextree2id6NodeIdNtB3_9NodeIdExt16descendants_roleNtB5_9NodeCountEB5_
FNDA:260,_RNvMs3_NtCs22gWgzn6ZqV_31indextree_method_structural_nav13indextree_extINtB5_12TraverseRoleNtB7_4NodeE3newB7_
FNDA:260,_RNvMs3_NtCs22gWgzn6ZqV_31indextree_method_structural_nav13indextree_extINtB5_12TraverseRoleNtB7_9NodeCountE3newB7_
FNDA:260,_RNvMs_NtCs22gWgzn6ZqV_31indextree_method_structural_nav13indextree_extINtB4_15DescendantsRoleNtB6_4NodeE3newB6_
FNDA:260,_RNvMs_NtCs22gWgzn6ZqV_31indextree_method_structural_nav13indextree_extINtB4_15DescendantsRoleNtB6_9NodeCountE3newB6_
FNDA:1819456,_RINvXs2_NtCs22gWgzn6ZqV_31indextree_method_structural_nav13indextree_extNtNtCsj3p7DfRND3N_9indextree8traverse8NodeEdgeNtB6_11NodeEdgeExt18next_traverse_roleNtB8_4NodeEB8_
FNDA:1819456,_RINvXs2_NtCs22gWgzn6ZqV_31indextree_method_structural_nav13indextree_extNtNtCsj3p7DfRND3N_9indextree8traverse8NodeEdgeNtB6_11NodeEdgeExt18next_traverse_roleNtB8_9NodeCountEB8_
FNDA:1392207,_RNCNvXs0_NtCs22gWgzn6ZqV_31indextree_method_structural_nav13indextree_extINtB7_15DescendantsRoleNtB9_4NodeENtNtNtNtCs8eeqTsWlyPc_4core4iter6traits8iterator8Iterator4next0B9_
FNDA:1392207,_RNCNvXs0_NtCs22gWgzn6ZqV_31indextree_method_structural_nav13indextree_extINtB7_15DescendantsRoleNtB9_9NodeCountENtNtNtNtCs8eeqTsWlyPc_4core4iter6traits8iterator8Iterator4next0B9_
FNDA:1392207,_RNvMs3_NtCs22gWgzn6ZqV_31indextree_method_structural_nav13indextree_extINtB5_12TraverseRoleNtB7_4NodeE12next_of_nextB7_
FNDA:1392207,_RNvMs3_NtCs22gWgzn6ZqV_31indextree_method_structural_nav13indextree_extINtB5_12TraverseRoleNtB7_9NodeCountE12next_of_nextB7_
FNDA:648499,_RNvXs0_NtCs22gWgzn6ZqV_31indextree_method_structural_nav13indextree_extINtB5_15DescendantsRoleNtB7_4NodeENtNtNtNtCs8eeqTsWlyPc_4core4iter6traits8iterator8Iterator4nextB7_
FNDA:648499,_RNvXs0_NtCs22gWgzn6ZqV_31indextree_method_structural_nav13indextree_extINtB5_15DescendantsRoleNtB7_9NodeCountENtNtNtNtCs8eeqTsWlyPc_4core4iter6traits8iterator8Iterator4nextB7_
FNDA:1392429,_RNvXs4_NtCs22gWgzn6ZqV_31indextree_method_structural_nav13indextree_extINtB5_12TraverseRoleNtB7_4NodeENtNtNtNtCs8eeqTsWlyPc_4core4iter6traits8iterator8Iterator4nextB7_
FNDA:1392429,_RNvXs4_NtCs22gWgzn6ZqV_31indextree_method_structural_nav13indextree_extINtB5_12TraverseRoleNtB7_9NodeCountENtNtNtNtCs8eeqTsWlyPc_4core4iter6traits8iterator8Iterator4nextB7_
FNDA:0,_RINvXNtCs22gWgzn6ZqV_31indextree_method_structural_nav13indextree_extNtNtCsj3p7DfRND3N_9indextree2id6NodeIdNtB3_9NodeIdExt13traverse_rolepEB5_
FNF:9
FNH:8
DA:16,520
DA:17,520
DA:18,520
DA:19,0
DA:20,0
DA:21,0
DA:26,520
DA:27,520
DA:28,520
DA:37,1296998
DA:38,2784414
DA:39,1296554
DA:40,1487860
DA:41,2784414
DA:42,1296998
DA:61,3638912
DA:62,3638912
DA:63,3638912
DA:64,3638912
DA:65,3638912
DA:66,3638912
DA:67,1296554
DA:68,767658
DA:69,767658
DA:70,575734
DA:72,191924
DA:75,528896
DA:77,2342358
DA:78,2342358
DA:79,2342358
DA:80,1575242
DA:81,1575242
DA:82,720300
DA:84,854942
DA:90,767116
DA:94,3638912
DA:103,520
DA:104,520
DA:105,520
DA:106,520
DA:107,520
DA:108,520
DA:109,520
DA:110,520
DA:113,2784414
DA:114,2784414
DA:115,2784414
DA:116,2784414
DA:117,2784414
DA:118,444
DA:119,2783970
DA:120,2783970
DA:121,2784414
DA:130,2784858
DA:131,2784858
DA:132,2784414
DA:133,2784414
DA:134,2784858
BRF:0
BRH:0
LF:59
LH:56
end_of_record
SF:/home/tait/Documents/a11y-tree-data/code/indextree-method-structural-nav/src/lib.rs
FN:260,_RNCNvXs0_Csfw8KLZzEbVr_31indextree_method_structural_navNtB7_9TreeCountNtB7_13TreeTraversal16par_unique_roless_0B7_
FN:538,_RNCNvXs3_Csfw8KLZzEbVr_31indextree_method_structural_navNtB7_4TreeNtB7_13TreeTraversal16par_unique_roless_0B7_
FN:309,_RNCNvXs0_Csfw8KLZzEbVr_31indextree_method_structural_navNtB7_9TreeCountNtB7_13TreeTraversal22par_find_first_rolesets_0B7_
FN:467,_RNCNvXs3_Csfw8KLZzEbVr_31indextree_method_structural_navNtB7_4TreeNtB7_13TreeTraversal22par_find_first_rolesets_0B7_
FN:224,_RNCNvXs0_Csfw8KLZzEbVr_31indextree_method_structural_navNtB7_9TreeCountNtB7_13TreeTraversal12par_how_many0B7_
FN:218,_RNCNvXs0_Csfw8KLZzEbVr_31indextree_method_structural_navNtB7_9TreeCountNtB7_13TreeTraversal20par_how_many_rolesets_0B7_
FN:502,_RNCNvXs3_Csfw8KLZzEbVr_31indextree_method_structural_navNtB7_4TreeNtB7_13TreeTraversal12par_how_many0B7_
FN:577,_RNCNvXs3_Csfw8KLZzEbVr_31indextree_method_structural_navNtB7_4TreeNtB7_13TreeTraversal20par_how_many_rolesets_0B7_
FN:264,_RNCNvXs0_Csfw8KLZzEbVr_31indextree_method_structural_navNtB7_9TreeCountNtB7_13TreeTraversal16par_unique_roless1_0B7_
FN:264,_RNCNvXs0_Csfw8KLZzEbVr_31indextree_method_structural_navNtB7_9TreeCountNtB7_13TreeTraversal16par_unique_roless2_0B7_
FN:207,_RNCNvXs0_Csfw8KLZzEbVr_31indextree_method_structural_navNtB7_9TreeCountNtB7_13TreeTraversal20par_how_many_roleset0B7_
FN:298,_RNCNvXs0_Csfw8KLZzEbVr_31indextree_method_structural_navNtB7_9TreeCountNtB7_13TreeTraversal22par_find_first_roleset0B7_
FN:542,_RNCNvXs3_Csfw8KLZzEbVr_31indextree_method_structural_navNtB7_4TreeNtB7_13TreeTraversal16par_unique_roless1_0B7_
FN:542,_RNCNvXs3_Csfw8KLZzEbVr_31indextree_method_structural_navNtB7_4TreeNtB7_13TreeTraversal16par_unique_roless2_0B7_
FN:566,_RNCNvXs3_Csfw8KLZzEbVr_31indextree_method_structural_navNtB7_4TreeNtB7_13TreeTraversal20par_how_many_roleset0B7_
FN:456,_RNCNvXs3_Csfw8KLZzEbVr_31indextree_method_structural_navNtB7_4TreeNtB7_13TreeTraversal22par_find_first_roleset0B7_
FN:54,_RNvXCsfw8KLZzEbVr_31indextree_method_structural_navNtB2_9NodeCountNtNtB2_13indextree_ext7HasRole7roleset
FN:356,_RNvXs1_Csfw8KLZzEbVr_31indextree_method_structural_navNtB5_4NodeNtNtB5_13indextree_ext7HasRole7roleset
FN:280,_RNCNCNvXs0_Csfw8KLZzEbVr_31indextree_method_structural_navNtB9_9TreeCountNtB9_13TreeTraversal10find_first00B9_
FN:293,_RNCNCNvXs0_Csfw8KLZzEbVr_31indextree_method_structural_navNtB9_9TreeCountNtB9_13TreeTraversal18find_first_roleset00B9_
FN:209,_RNCNCNvXs0_Csfw8KLZzEbVr_31indextree_method_structural_navNtB9_9TreeCountNtB9_13TreeTraversal20par_how_many_roleset00B9_
FN:300,_RNCNCNvXs0_Csfw8KLZzEbVr_31indextree_method_structural_navNtB9_9TreeCountNtB9_13TreeTraversal22par_find_first_roleset00B9_
FN:436,_RNCNCNvXs3_Csfw8KLZzEbVr_31indextree_method_structural_navNtB9_4TreeNtB9_13TreeTraversal10find_first00B9_
FN:451,_RNCNCNvXs3_Csfw8KLZzEbVr_31indextree_method_structural_navNtB9_4TreeNtB9_13TreeTraversal18find_first_roleset00B9_
FN:568,_RNCNCNvXs3_Csfw8KLZzEbVr_31indextree_method_structural_navNtB9_4TreeNtB9_13TreeTraversal20par_how_many_roleset00B9_
FN:458,_RNCNCNvXs3_Csfw8KLZzEbVr_31indextree_method_structural_navNtB9_4TreeNtB9_13TreeTraversal22par_find_first_roleset00B9_
FN:277,_RNCNvXs0_Csfw8KLZzEbVr_31indextree_method_structural_navNtB7_9TreeCountNtB7_13TreeTraversal10find_first0B7_
FN:248,_RNCNvXs0_Csfw8KLZzEbVr_31indextree_method_structural_navNtB7_9TreeCountNtB7_13TreeTraversal12unique_roles0B7_
FN:250,_RNCNvXs0_Csfw8KLZzEbVr_31indextree_method_structural_navNtB7_9TreeCountNtB7_13TreeTraversal12unique_roless0_0B7_
FN:249,_RNCNvXs0_Csfw8KLZzEbVr_31indextree_method_structural_navNtB7_9TreeCountNtB7_13TreeTraversal12unique_roless_0B7_
FN:237,_RNCNvXs0_Csfw8KLZzEbVr_31indextree_method_structural_navNtB7_9TreeCountNtB7_13TreeTraversal13par_max_depth0B7_
FN:324,_RNCNvXs0_Csfw8KLZzEbVr_31indextree_method_structural_navNtB7_9TreeCountNtB7_13TreeTraversal16find_first_stack0B7_
FN:328,_RNCNvXs0_Csfw8KLZzEbVr_31indextree_method_structural_navNtB7_9TreeCountNtB7_13TreeTraversal16find_first_stacks_0B7_
FN:199,_RNCNvXs0_Csfw8KLZzEbVr_31indextree_method_structural_navNtB7_9TreeCountNtB7_13TreeTraversal16how_many_roleset0B7_
FN:258,_RNCNvXs0_Csfw8KLZzEbVr_31indextree_method_structural_navNtB7_9TreeCountNtB7_13TreeTraversal16par_unique_roles0B7_
FN:260,_RNCNvXs0_Csfw8KLZzEbVr_31indextree_method_structural_navNtB7_9TreeCountNtB7_13TreeTraversal16par_unique_roless0_0B7_
FN:290,_RNCNvXs0_Csfw8KLZzEbVr_31indextree_method_structural_navNtB7_9TreeCountNtB7_13TreeTraversal18find_first_roleset0B7_
FN:186,_RNCNvXs0_Csfw8KLZzEbVr_31indextree_method_structural_navNtB7_9TreeCountNtB7_13TreeTraversal8how_many0B7_
FN:187,_RNCNvXs0_Csfw8KLZzEbVr_31indextree_method_structural_navNtB7_9TreeCountNtB7_13TreeTraversal8how_manys_0B7_
FN:433,_RNCNvXs3_Csfw8KLZzEbVr_31indextree_method_structural_navNtB7_4TreeNtB7_13TreeTraversal10find_first0B7_
FN:526,_RNCNvXs3_Csfw8KLZzEbVr_31indextree_method_structural_navNtB7_4TreeNtB7_13TreeTraversal12unique_roles0B7_
FN:528,_RNCNvXs3_Csfw8KLZzEbVr_31indextree_method_structural_navNtB7_4TreeNtB7_13TreeTraversal12unique_roless0_0B7_
FN:527,_RNCNvXs3_Csfw8KLZzEbVr_31indextree_method_structural_navNtB7_4TreeNtB7_13TreeTraversal12unique_roless_0B7_
FN:515,_RNCNvXs3_Csfw8KLZzEbVr_31indextree_method_structural_navNtB7_4TreeNtB7_13TreeTraversal13par_max_depth0B7_
FN:482,_RNCNvXs3_Csfw8KLZzEbVr_31indextree_method_structural_navNtB7_4TreeNtB7_13TreeTraversal16find_first_stack0B7_
FN:486,_RNCNvXs3_Csfw8KLZzEbVr_31indextree_method_structural_navNtB7_4TreeNtB7_13TreeTraversal16find_first_stacks_0B7_
FN:556,_RNCNvXs3_Csfw8KLZzEbVr_31indextree_method_structural_navNtB7_4TreeNtB7_13TreeTraversal16how_many_roleset0B7_
FN:536,_RNCNvXs3_Csfw8KLZzEbVr_31indextree_method_structural_navNtB7_4TreeNtB7_13TreeTraversal16par_unique_roles0B7_
FN:538,_RNCNvXs3_Csfw8KLZzEbVr_31indextree_method_structural_navNtB7_4TreeNtB7_13TreeTraversal16par_unique_roless0_0B7_
FN:448,_RNCNvXs3_Csfw8KLZzEbVr_31indextree_method_structural_navNtB7_4TreeNtB7_13TreeTraversal18find_first_roleset0B7_
FN:495,_RNCNvXs3_Csfw8KLZzEbVr_31indextree_method_structural_navNtB7_4TreeNtB7_13TreeTraversal8how_many0B7_
FN:496,_RNCNvXs3_Csfw8KLZzEbVr_31indextree_method_structural_navNtB7_4TreeNtB7_13TreeTraversal8how_manys_0B7_
FN:362,_RNvMs2_Csfw8KLZzEbVr_31indextree_method_structural_navNtB5_4Node14from_a11y_node
FN:61,_RNvMs_Csfw8KLZzEbVr_31indextree_method_structural_navNtB4_9NodeCount14from_a11y_node
FN:46,_RNvXNvXNvCsfw8KLZzEbVr_31indextree_method_structural_nav1__NtB7_9NodeCountNtNtCsgwkn3kcQmDy_5serde2de11Deserialize11deserializeNtB2_14___FieldVisitorNtB1c_7Visitor9expecting
FN:341,_RNvXNvXNvCsfw8KLZzEbVr_31indextree_method_structural_navs0_1__NtB7_9TreeCountNtNtCsgwkn3kcQmDy_5serde2de11Deserialize11deserializeNtB2_14___FieldVisitorNtB1f_7Visitor9expecting
FN:348,_RNvXNvXNvCsfw8KLZzEbVr_31indextree_method_structural_navs2_1__NtB7_4NodeNtNtCsgwkn3kcQmDy_5serde2de11Deserialize11deserializeNtB2_14___FieldVisitorNtB1a_7Visitor9expecting
FN:377,_RNvXNvXNvCsfw8KLZzEbVr_31indextree_method_structural_navs4_1__NtB7_4TreeNtNtCsgwkn3kcQmDy_5serde2de11Deserialize11deserializeNtB2_14___FieldVisitorNtB1a_7Visitor9expecting
FN:586,_RNvXNvXNvCsfw8KLZzEbVr_31indextree_method_structural_navs7_1__NtB7_8A11yNodeNtNtCsgwkn3kcQmDy_5serde2de11Deserialize11deserializeNtB2_14___FieldVisitorNtB1e_7Visitor9expecting
FN:276,_RNvXs0_Csfw8KLZzEbVr_31indextree_method_structural_navNtB5_9TreeCountNtB5_13TreeTraversal10find_first
FN:221,_RNvXs0_Csfw8KLZzEbVr_31indextree_method_structural_navNtB5_9TreeCountNtB5_13TreeTraversal12par_how_many
FN:245,_RNvXs0_Csfw8KLZzEbVr_31indextree_method_structural_navNtB5_9TreeCountNtB5_13TreeTraversal12unique_roles
FN:234,_RNvXs0_Csfw8KLZzEbVr_31indextree_method_structural_navNtB5_9TreeCountNtB5_13TreeTraversal13par_max_depth
FN:134,_RNvXs0_Csfw8KLZzEbVr_31indextree_method_structural_navNtB5_9TreeCountNtB5_13TreeTraversal14build_rolesets
FN:155,_RNvXs0_Csfw8KLZzEbVr_31indextree_method_structural_navNtB5_9TreeCountNtB5_13TreeTraversal14from_root_node
FN:283,_RNvXs0_Csfw8KLZzEbVr_31indextree_method_structural_navNtB5_9TreeCountNtB5_13TreeTraversal14par_find_first
FN:312,_RNvXs0_Csfw8KLZzEbVr_31indextree_method_structural_navNtB5_9TreeCountNtB5_13TreeTraversal16find_first_stack
FN:197,_RNvXs0_Csfw8KLZzEbVr_31indextree_method_structural_navNtB5_9TreeCountNtB5_13TreeTraversal16how_many_roleset
FN:255,_RNvXs0_Csfw8KLZzEbVr_31indextree_method_structural_navNtB5_9TreeCountNtB5_13TreeTraversal16par_unique_roles
FN:289,_RNvXs0_Csfw8KLZzEbVr_31indextree_method_structural_navNtB5_9TreeCountNtB5_13TreeTraversal18find_first_roleset
FN:205,_RNvXs0_Csfw8KLZzEbVr_31indextree_method_structural_navNtB5_9TreeCountNtB5_13TreeTraversal20par_how_many_roleset
FN:268,_RNvXs0_Csfw8KLZzEbVr_31indextree_method_structural_navNtB5_9TreeCountNtB5_13TreeTraversal20unique_roles_roleset
FN:296,_RNvXs0_Csfw8KLZzEbVr_31indextree_method_structural_navNtB5_9TreeCountNtB5_13TreeTraversal22par_find_first_roleset
FN:183,_RNvXs0_Csfw8KLZzEbVr_31indextree_method_structural_navNtB5_9TreeCountNtB5_13TreeTraversal8how_many
FN:227,_RNvXs0_Csfw8KLZzEbVr_31indextree_method_structural_navNtB5_9TreeCountNtB5_13TreeTraversal9max_depth
FN:46,_RNvXs0_NvXNvCsfw8KLZzEbVr_31indextree_method_structural_nav1__NtBa_9NodeCountNtNtCsgwkn3kcQmDy_5serde2de11Deserialize11deserializeNtB5_9___VisitorNtB1f_7Visitor9expecting
FN:341,_RNvXs0_NvXNvCsfw8KLZzEbVr_31indextree_method_structural_navs0_1__NtBa_9TreeCountNtNtCsgwkn3kcQmDy_5serde2de11Deserialize11deserializeNtB5_9___VisitorNtB1i_7Visitor9expecting
FN:348,_RNvXs0_NvXNvCsfw8KLZzEbVr_31indextree_method_structural_navs2_1__NtBa_4NodeNtNtCsgwkn3kcQmDy_5serde2de11Deserialize11deserializeNtB5_9___VisitorNtB1d_7Visitor9expecting
FN:377,_RNvXs0_NvXNvCsfw8KLZzEbVr_31indextree_method_structural_navs4_1__NtBa_4TreeNtNtCsgwkn3kcQmDy_5serde2de11Deserialize11deserializeNtB5_9___VisitorNtB1d_7Visitor9expecting
FN:586,_RNvXs0_NvXNvCsfw8KLZzEbVr_31indextree_method_structural_navs7_1__NtBa_8A11yNodeNtNtCsgwkn3kcQmDy_5serde2de11Deserialize11deserializeNtB5_9___VisitorNtB1h_7Visitor9expecting
FN:432,_RNvXs3_Csfw8KLZzEbVr_31indextree_method_structural_navNtB5_4TreeNtB5_13TreeTraversal10find_first
FN:499,_RNvXs3_Csfw8KLZzEbVr_31indextree_method_structural_navNtB5_4TreeNtB5_13TreeTraversal12par_how_many
FN:523,_RNvXs3_Csfw8KLZzEbVr_31indextree_method_structural_navNtB5_4TreeNtB5_13TreeTraversal12unique_roles
FN:512,_RNvXs3_Csfw8KLZzEbVr_31indextree_method_structural_navNtB5_4TreeNtB5_13TreeTraversal13par_max_depth
FN:386,_RNvXs3_Csfw8KLZzEbVr_31indextree_method_structural_navNtB5_4TreeNtB5_13TreeTraversal14build_rolesets
FN:407,_RNvXs3_Csfw8KLZzEbVr_31indextree_method_structural_navNtB5_4TreeNtB5_13TreeTraversal14from_root_node
FN:439,_RNvXs3_Csfw8KLZzEbVr_31indextree_method_structural_navNtB5_4TreeNtB5_13TreeTraversal14par_find_first
FN:470,_RNvXs3_Csfw8KLZzEbVr_31indextree_method_structural_navNtB5_4TreeNtB5_13TreeTraversal16find_first_stack
FN:553,_RNvXs3_Csfw8KLZzEbVr_31indextree_method_structural_navNtB5_4TreeNtB5_13TreeTraversal16how_many_roleset
FN:533,_RNvXs3_Csfw8KLZzEbVr_31indextree_method_structural_navNtB5_4TreeNtB5_13TreeTraversal16par_unique_roles
FN:447,_RNvXs3_Csfw8KLZzEbVr_31indextree_method_structural_navNtB5_4TreeNtB5_13TreeTraversal18find_first_roleset
FN:564,_RNvXs3_Csfw8KLZzEbVr_31indextree_method_structural_navNtB5_4TreeNtB5_13TreeTraversal20par_how_many_roleset
FN:546,_RNvXs3_Csfw8KLZzEbVr_31indextree_method_structural_navNtB5_4TreeNtB5_13TreeTraversal20unique_roles_roleset
FN:454,_RNvXs3_Csfw8KLZzEbVr_31indextree_method_structural_navNtB5_4TreeNtB5_13TreeTraversal22par_find_first_roleset
FN:492,_RNvXs3_Csfw8KLZzEbVr_31indextree_method_structural_navNtB5_4TreeNtB5_13TreeTraversal8how_many
FN:505,_RNvXs3_Csfw8KLZzEbVr_31indextree_method_structural_navNtB5_4TreeNtB5_13TreeTraversal9max_depth
FN:230,_RNCNvXs0_Csfw8KLZzEbVr_31indextree_method_structural_navNtB7_9TreeCountNtB7_13TreeTraversal9max_depth0B7_
FN:508,_RNCNvXs3_Csfw8KLZzEbVr_31indextree_method_structural_navNtB7_4TreeNtB7_13TreeTraversal9max_depth0B7_
FN:287,_RNCNvXs0_Csfw8KLZzEbVr_31indextree_method_structural_navNtB7_9TreeCountNtB7_13TreeTraversal14par_find_first0B7_
FN:310,_RNCNvXs0_Csfw8KLZzEbVr_31indextree_method_structural_navNtB7_9TreeCountNtB7_13TreeTraversal22par_find_first_rolesets0_0B7_
FN:445,_RNCNvXs3_Csfw8KLZzEbVr_31indextree_method_structural_navNtB7_4TreeNtB7_13TreeTraversal14par_find_first0B7_
FN:468,_RNCNvXs3_Csfw8KLZzEbVr_31indextree_method_structural_navNtB7_4TreeNtB7_13TreeTraversal22par_find_first_rolesets0_0B7_
FN:46,_RINvXs0_NvXNvCsfw8KLZzEbVr_31indextree_method_structural_nav1__NtBb_9NodeCountNtNtCsgwkn3kcQmDy_5serde2de11Deserialize11deserializeNtB6_9___VisitorNtB1g_7Visitor9visit_mappEBb_
FN:46,_RINvXs0_NvXNvCsfw8KLZzEbVr_31indextree_method_structural_nav1__NtBb_9NodeCountNtNtCsgwkn3kcQmDy_5serde2de11Deserialize11deserializeNtB6_9___VisitorNtB1g_7Visitor9visit_seqpEBb_
FN:341,_RINvXs0_NvXNvCsfw8KLZzEbVr_31indextree_method_structural_navs0_1__NtBb_9TreeCountNtNtCsgwkn3kcQmDy_5serde2de11Deserialize11deserializeNtB6_9___VisitorNtB1j_7Visitor9visit_mappEBb_
FN:341,_RINvXs0_NvXNvCsfw8KLZzEbVr_31indextree_method_structural_navs0_1__NtBb_9TreeCountNtNtCsgwkn3kcQmDy_5serde2de11Deserialize11deserializeNtB6_9___VisitorNtB1j_7Visitor9visit_seqpEBb_
FN:348,_RINvXs0_NvXNvCsfw8KLZzEbVr_31indextree_method_structural_navs2_1__NtBb_4NodeNtNtCsgwkn3kcQmDy_5serde2de11Deserialize11deserializeNtB6_9___VisitorNtB1e_7Visitor9visit_mappEBb_
FN:348,_RINvXs0_NvXNvCsfw8KLZzEbVr_31indextree_method_structural_navs2_1__NtBb_4NodeNtNtCsgwkn3kcQmDy_5serde2de11Deserialize11deserializeNtB6_9___VisitorNtB1e_7Visitor9visit_seqpEBb_
FN:377,_RINvXs0_NvXNvCsfw8KLZzEbVr_31indextree_method_structural_navs4_1__NtBb_4TreeNtNtCsgwkn3kcQmDy_5serde2de11Deserialize11deserializeNtB6_9___VisitorNtB1e_7Visitor9visit_mappEBb_
FN:377,_RINvXs0_NvXNvCsfw8KLZzEbVr_31indextree_method_structural_navs4_1__NtBb_4TreeNtNtCsgwkn3kcQmDy_5serde2de11Deserialize11deserializeNtB6_9___VisitorNtB1e_7Visitor9visit_seqpEBb_
FN:586,_RINvXs0_NvXNvCsfw8KLZzEbVr_31indextree_method_structural_navs7_1__NtBb_8A11yNodeNtNtCsgwkn3kcQmDy_5serde2de11Deserialize11deserializeNtB6_9___VisitorNtB1i_7Visitor9visit_mappEBb_
FN:586,_RINvXs0_NvXNvCsfw8KLZzEbVr_31indextree_method_structural_navs7_1__NtBb_8A11yNodeNtNtCsgwkn3kcQmDy_5serde2de11Deserialize11deserializeNtB6_9___VisitorNtB1i_7Visitor9visit_seqpEBb_
FN:46,_RINvXs_NvXNvCsfw8KLZzEbVr_31indextree_method_structural_nav1__NtBa_9NodeCountNtNtCsgwkn3kcQmDy_5serde2de11Deserialize11deserializeNtB5_7___FieldB1d_11deserializepEBa_
FN:341,_RINvXs_NvXNvCsfw8KLZzEbVr_31indextree_method_structural_navs0_1__NtBa_9TreeCountNtNtCsgwkn3kcQmDy_5serde2de11Deserialize11deserializeNtB5_7___FieldB1g_11deserializepEBa_
FN:348,_RINvXs_NvXNvCsfw8KLZzEbVr_31indextree_method_structural_navs2_1__NtBa_4NodeNtNtCsgwkn3kcQmDy_5serde2de11Deserialize11deserializeNtB5_7___FieldB1b_11deserializepEBa_
FN:377,_RINvXs_NvXNvCsfw8KLZzEbVr_31indextree_method_structural_navs4_1__NtBa_4TreeNtNtCsgwkn3kcQmDy_5serde2de11Deserialize11deserializeNtB5_7___FieldB1b_11deserializepEBa_
FN:586,_RINvXs_NvXNvCsfw8KLZzEbVr_31indextree_method_structural_navs7_1__NtBa_8A11yNodeNtNtCsgwkn3kcQmDy_5serde2de11Deserialize11deserializeNtB5_7___FieldB1f_11deserializepEBa_
FN:164,_RNCNvXs0_Csfw8KLZzEbVr_31indextree_method_structural_navNtB7_9TreeCountNtB7_13TreeTraversal10iter_leafs0B7_
FN:175,_RNCNvXs0_Csfw8KLZzEbVr_31indextree_method_structural_navNtB7_9TreeCountNtB7_13TreeTraversal14par_iter_leafs0B7_
FN:416,_RNCNvXs3_Csfw8KLZzEbVr_31indextree_method_structural_navNtB7_4TreeNtB7_13TreeTraversal10iter_leafs0B7_
FN:427,_RNCNvXs3_Csfw8KLZzEbVr_31indextree_method_structural_navNtB7_4TreeNtB7_13TreeTraversal14par_iter_leafs0B7_
FN:163,_RNvXs0_Csfw8KLZzEbVr_31indextree_method_structural_navNtB5_9TreeCountNtB5_13TreeTraversal10iter_leafs
FN:172,_RNvXs0_Csfw8KLZzEbVr_31indextree_method_structural_navNtB5_9TreeCountNtB5_13TreeTraversal14par_iter_leafs
FN:334,_RNvXs0_Csfw8KLZzEbVr_31indextree_method_structural_navNtB5_9TreeCountNtB5_13TreeTraversal5nodes
FN:415,_RNvXs3_Csfw8KLZzEbVr_31indextree_method_structural_navNtB5_4TreeNtB5_13TreeTraversal10iter_leafs
FN:424,_RNvXs3_Csfw8KLZzEbVr_31indextree_method_structural_navNtB5_4TreeNtB5_13TreeTraversal14par_iter_leafs
FN:429,_RNvXs3_Csfw8KLZzEbVr_31indextree_method_structural_navNtB5_4TreeNtB5_13TreeTraversal5nodes
FN:280,_RNCNCNvXs0_Cs22gWgzn6ZqV_31indextree_method_structural_navNtB9_9TreeCountNtB9_13TreeTraversal10find_first00B9_
FN:293,_RNCNCNvXs0_Cs22gWgzn6ZqV_31indextree_method_structural_navNtB9_9TreeCountNtB9_13TreeTraversal18find_first_roleset00B9_
FN:209,_RNCNCNvXs0_Cs22gWgzn6ZqV_31indextree_method_structural_navNtB9_9TreeCountNtB9_13TreeTraversal20par_how_many_roleset00B9_
FN:300,_RNCNCNvXs0_Cs22gWgzn6ZqV_31indextree_method_structural_navNtB9_9TreeCountNtB9_13TreeTraversal22par_find_first_roleset00B9_
FN:436,_RNCNCNvXs3_Cs22gWgzn6ZqV_31indextree_method_structural_navNtB9_4TreeNtB9_13TreeTraversal10find_first00B9_
FN:451,_RNCNCNvXs3_Cs22gWgzn6ZqV_31indextree_method_structural_navNtB9_4TreeNtB9_13TreeTraversal18find_first_roleset00B9_
FN:568,_RNCNCNvXs3_Cs22gWgzn6ZqV_31indextree_method_structural_navNtB9_4TreeNtB9_13TreeTraversal20par_how_many_roleset00B9_
FN:458,_RNCNCNvXs3_Cs22gWgzn6ZqV_31indextree_method_structural_navNtB9_4TreeNtB9_13TreeTraversal22par_find_first_roleset00B9_
FN:277,_RNCNvXs0_Cs22gWgzn6ZqV_31indextree_method_structural_navNtB7_9TreeCountNtB7_13TreeTraversal10find_first0B7_
FN:164,_RNCNvXs0_Cs22gWgzn6ZqV_31indextree_method_structural_navNtB7_9TreeCountNtB7_13TreeTraversal10iter_leafs0B7_
FN:248,_RNCNvXs0_Cs22gWgzn6ZqV_31indextree_method_structural_navNtB7_9TreeCountNtB7_13TreeTraversal12unique_roles0B7_
FN:250,_RNCNvXs0_Cs22gWgzn6ZqV_31indextree_method_structural_navNtB7_9TreeCountNtB7_13TreeTraversal12unique_roless0_0B7_
FN:249,_RNCNvXs0_Cs22gWgzn6ZqV_31indextree_method_structural_navNtB7_9TreeCountNtB7_13TreeTraversal12unique_roless_0B7_
FN:237,_RNCNvXs0_Cs22gWgzn6ZqV_31indextree_method_structural_navNtB7_9TreeCountNtB7_13TreeTraversal13par_max_depth0B7_
FN:324,_RNCNvXs0_Cs22gWgzn6ZqV_31indextree_method_structural_navNtB7_9TreeCountNtB7_13TreeTraversal16find_first_stack0B7_
FN:328,_RNCNvXs0_Cs22gWgzn6ZqV_31indextree_method_structural_navNtB7_9TreeCountNtB7_13TreeTraversal16find_first_stacks_0B7_
FN:199,_RNCNvXs0_Cs22gWgzn6ZqV_31indextree_method_structural_navNtB7_9TreeCountNtB7_13TreeTraversal16how_many_roleset0B7_
FN:258,_RNCNvXs0_Cs22gWgzn6ZqV_31indextree_method_structural_navNtB7_9TreeCountNtB7_13TreeTraversal16par_unique_roles0B7_
FN:260,_RNCNvXs0_Cs22gWgzn6ZqV_31indextree_method_structural_navNtB7_9TreeCountNtB7_13TreeTraversal16par_unique_roless0_0B7_
FN:290,_RNCNvXs0_Cs22gWgzn6ZqV_31indextree_method_structural_navNtB7_9TreeCountNtB7_13TreeTraversal18find_first_roleset0B7_
FN:309,_RNCNvXs0_Cs22gWgzn6ZqV_31indextree_method_structural_navNtB7_9TreeCountNtB7_13TreeTraversal22par_find_first_rolesets_0B7_
FN:186,_RNCNvXs0_Cs22gWgzn6ZqV_31indextree_method_structural_navNtB7_9TreeCountNtB7_13TreeTraversal8how_many0B7_
FN:187,_RNCNvXs0_Cs22gWgzn6ZqV_31indextree_method_structural_navNtB7_9TreeCountNtB7_13TreeTraversal8how_manys_0B7_
FN:230,_RNCNvXs0_Cs22gWgzn6ZqV_31indextree_method_structural_navNtB7_9TreeCountNtB7_13TreeTraversal9max_depth0B7_
FN:433,_RNCNvXs3_Cs22gWgzn6ZqV_31indextree_method_structural_navNtB7_4TreeNtB7_13TreeTraversal10find_first0B7_
FN:416,_RNCNvXs3_Cs22gWgzn6ZqV_31indextree_method_structural_navNtB7_4TreeNtB7_13TreeTraversal10iter_leafs0B7_
FN:526,_RNCNvXs3_Cs22gWgzn6ZqV_31indextree_method_structural_navNtB7_4TreeNtB7_13TreeTraversal12unique_roles0B7_
FN:528,_RNCNvXs3_Cs22gWgzn6ZqV_31indextree_method_structural_navNtB7_4TreeNtB7_13TreeTraversal12unique_roless0_0B7_
FN:527,_RNCNvXs3_Cs22gWgzn6ZqV_31indextree_method_structural_navNtB7_4TreeNtB7_13TreeTraversal12unique_roless_0B7_
FN:515,_RNCNvXs3_Cs22gWgzn6ZqV_31indextree_method_structural_navNtB7_4TreeNtB7_13TreeTraversal13par_max_depth0B7_
FN:482,_RNCNvXs3_Cs22gWgzn6ZqV_31indextree_method_structural_navNtB7_4TreeNtB7_13TreeTraversal16find_first_stack0B7_
FN:486,_RNCNvXs3_Cs22gWgzn6ZqV_31indextree_method_structural_navNtB7_4TreeNtB7_13TreeTraversal16find_first_stacks_0B7_
FN:556,_RNCNvXs3_Cs22gWgzn6ZqV_31indextree_method_structural_navNtB7_4TreeNtB7_13TreeTraversal16how_many_roleset0B7_
FN:536,_RNCNvXs3_Cs22gWgzn6ZqV_31indextree_method_structural_navNtB7_4TreeNtB7_13TreeTraversal16par_unique_roles0B7_
FN:538,_RNCNvXs3_Cs22gWgzn6ZqV_31indextree_method_structural_navNtB7_4TreeNtB7_13TreeTraversal16par_unique_roless0_0B7_
FN:448,_RNCNvXs3_Cs22gWgzn6ZqV_31indextree_method_structural_navNtB7_4TreeNtB7_13TreeTraversal18find_first_roleset0B7_
FN:467,_RNCNvXs3_Cs22gWgzn6ZqV_31indextree_method_structural_navNtB7_4TreeNtB7_13TreeTraversal22par_find_first_rolesets_0B7_
FN:495,_RNCNvXs3_Cs22gWgzn6ZqV_31indextree_method_structural_navNtB7_4TreeNtB7_13TreeTraversal8how_many0B7_
FN:496,_RNCNvXs3_Cs22gWgzn6ZqV_31indextree_method_structural_navNtB7_4TreeNtB7_13TreeTraversal8how_manys_0B7_
FN:508,_RNCNvXs3_Cs22gWgzn6ZqV_31indextree_method_structural_navNtB7_4TreeNtB7_13TreeTraversal9max_depth0B7_
FN:362,_RNvMs2_Cs22gWgzn6ZqV_31indextree_method_structural_navNtB5_4Node14from_a11y_node
FN:61,_RNvMs_Cs22gWgzn6ZqV_31indextree_method_structural_navNtB4_9NodeCount14from_a11y_node
FN:276,_RNvXs0_Cs22gWgzn6ZqV_31indextree_method_structural_navNtB5_9TreeCountNtB5_13TreeTraversal10find_first
FN:221,_RNvXs0_Cs22gWgzn6ZqV_31indextree_method_structural_navNtB5_9TreeCountNtB5_13TreeTraversal12par_how_many
FN:245,_RNvXs0_Cs22gWgzn6ZqV_31indextree_method_structural_navNtB5_9TreeCountNtB5_13TreeTraversal12unique_roles
FN:234,_RNvXs0_Cs22gWgzn6ZqV_31indextree_method_structural_navNtB5_9TreeCountNtB5_13TreeTraversal13par_max_depth
FN:134,_RNvXs0_Cs22gWgzn6ZqV_31indextree_method_structural_navNtB5_9TreeCountNtB5_13TreeTraversal14build_rolesets
FN:155,_RNvXs0_Cs22gWgzn6ZqV_31indextree_method_structural_navNtB5_9TreeCountNtB5_13TreeTraversal14from_root_node
FN:283,_RNvXs0_Cs22gWgzn6ZqV_31indextree_method_structural_navNtB5_9TreeCountNtB5_13TreeTraversal14par_find_first
FN:312,_RNvXs0_Cs22gWgzn6ZqV_31indextree_method_structural_navNtB5_9TreeCountNtB5_13TreeTraversal16find_first_stack
FN:197,_RNvXs0_Cs22gWgzn6ZqV_31indextree_method_structural_navNtB5_9TreeCountNtB5_13TreeTraversal16how_many_roleset
FN:255,_RNvXs0_Cs22gWgzn6ZqV_31indextree_method_structural_navNtB5_9TreeCountNtB5_13TreeTraversal16par_unique_roles
FN:289,_RNvXs0_Cs22gWgzn6ZqV_31indextree_method_structural_navNtB5_9TreeCountNtB5_13TreeTraversal18find_first_roleset
FN:205,_RNvXs0_Cs22gWgzn6ZqV_31indextree_method_structural_navNtB5_9TreeCountNtB5_13TreeTraversal20par_how_many_roleset
FN:268,_RNvXs0_Cs22gWgzn6ZqV_31indextree_method_structural_navNtB5_9TreeCountNtB5_13TreeTraversal20unique_roles_roleset
FN:296,_RNvXs0_Cs22gWgzn6ZqV_31indextree_method_structural_navNtB5_9TreeCountNtB5_13TreeTraversal22par_find_first_roleset
FN:183,_RNvXs0_Cs22gWgzn6ZqV_31indextree_method_structural_navNtB5_9TreeCountNtB5_13TreeTraversal8how_many
FN:227,_RNvXs0_Cs22gWgzn6ZqV_31indextree_method_structural_navNtB5_9TreeCountNtB5_13TreeTraversal9max_depth
FN:586,_RNvXs0_NvXNvCs22gWgzn6ZqV_31indextree_method_structural_navs7_1__NtBa_8A11yNodeNtNtCsgwkn3kcQmDy_5serde2de11Deserialize11deserializeNtB5_9___VisitorNtB1h_7Visitor9expecting
FN:432,_RNvXs3_Cs22gWgzn6ZqV_31indextree_method_structural_navNtB5_4TreeNtB5_13TreeTraversal10find_first
FN:499,_RNvXs3_Cs22gWgzn6ZqV_31indextree_method_structural_navNtB5_4TreeNtB5_13TreeTraversal12par_how_many
FN:523,_RNvXs3_Cs22gWgzn6ZqV_31indextree_method_structural_navNtB5_4TreeNtB5_13TreeTraversal12unique_roles
FN:512,_RNvXs3_Cs22gWgzn6ZqV_31indextree_method_structural_navNtB5_4TreeNtB5_13TreeTraversal13par_max_depth
FN:386,_RNvXs3_Cs22gWgzn6ZqV_31indextree_method_structural_navNtB5_4TreeNtB5_13TreeTraversal14build_rolesets
FN:407,_RNvXs3_Cs22gWgzn6ZqV_31indextree_method_structural_navNtB5_4TreeNtB5_13TreeTraversal14from_root_node
FN:439,_RNvXs3_Cs22gWgzn6ZqV_31indextree_method_structural_navNtB5_4TreeNtB5_13TreeTraversal14par_find_first
FN:470,_RNvXs3_Cs22gWgzn6ZqV_31indextree_method_structural_navNtB5_4TreeNtB5_13TreeTraversal16find_first_stack
FN:553,_RNvXs3_Cs22gWgzn6ZqV_31indextree_method_structural_navNtB5_4TreeNtB5_13TreeTraversal16how_many_roleset
FN:533,_RNvXs3_Cs22gWgzn6ZqV_31indextree_method_structural_navNtB5_4TreeNtB5_13TreeTraversal16par_unique_roles
FN:447,_RNvXs3_Cs22gWgzn6ZqV_31indextree_method_structural_navNtB5_4TreeNtB5_13TreeTraversal18find_first_roleset
FN:564,_RNvXs3_Cs22gWgzn6ZqV_31indextree_method_structural_navNtB5_4TreeNtB5_13TreeTraversal20par_how_many_roleset
FN:546,_RNvXs3_Cs22gWgzn6ZqV_31indextree_method_structural_navNtB5_4TreeNtB5_13TreeTraversal20unique_roles_roleset
FN:454,_RNvXs3_Cs22gWgzn6ZqV_31indextree_method_structural_navNtB5_4TreeNtB5_13TreeTraversal22par_find_first_roleset
FN:492,_RNvXs3_Cs22gWgzn6ZqV_31indextree_method_structural_navNtB5_4TreeNtB5_13TreeTraversal8how_many
FN:505,_RNvXs3_Cs22gWgzn6ZqV_31indextree_method_structural_navNtB5_4TreeNtB5_13TreeTraversal9max_depth
FN:163,_RNvXs0_Cs22gWgzn6ZqV_31indextree_method_structural_navNtB5_9TreeCountNtB5_13TreeTraversal10iter_leafs
FN:172,_RNvXs0_Cs22gWgzn6ZqV_31indextree_method_structural_navNtB5_9TreeCountNtB5_13TreeTraversal14par_iter_leafs
FN:415,_RNvXs3_Cs22gWgzn6ZqV_31indextree_method_structural_navNtB5_4TreeNtB5_13TreeTraversal10iter_leafs
FN:424,_RNvXs3_Cs22gWgzn6ZqV_31indextree_method_structural_navNtB5_4TreeNtB5_13TreeTraversal14par_iter_leafs
FN:586,_RINvXs0_NvXNvCs22gWgzn6ZqV_31indextree_method_structural_navs7_1__NtBb_8A11yNodeNtNtCsgwkn3kcQmDy_5serde2de11Deserialize11deserializeNtB6_9___VisitorNtB1i_7Visitor9visit_mapINtNtCskNM9RPplgwJ_10serde_json2de9MapAccessNtNtB2Q_4read7StrReadEEBb_
FN:586,_RINvXs0_NvXNvCs22gWgzn6ZqV_31indextree_method_structural_navs7_1__NtBb_8A11yNodeNtNtCsgwkn3kcQmDy_5serde2de11Deserialize11deserializeNtB6_9___VisitorNtB1i_7Visitor9visit_seqINtNtCskNM9RPplgwJ_10serde_json2de9SeqAccessNtNtB2Q_4read7StrReadEEBb_
FN:586,_RINvXs_NvXNvCs22gWgzn6ZqV_31indextree_method_structural_navs7_1__NtBa_8A11yNodeNtNtCsgwkn3kcQmDy_5serde2de11Deserialize11deserializeNtB5_7___FieldB1f_11deserializeINtNtCskNM9RPplgwJ_10serde_json2de6MapKeyNtNtB2G_4read7StrReadEEBa_
FN:224,_RNCNvXs0_Cs22gWgzn6ZqV_31indextree_method_structural_navNtB7_9TreeCountNtB7_13TreeTraversal12par_how_many0B7_
FN:287,_RNCNvXs0_Cs22gWgzn6ZqV_31indextree_method_structural_navNtB7_9TreeCountNtB7_13TreeTraversal14par_find_first0B7_
FN:218,_RNCNvXs0_Cs22gWgzn6ZqV_31indextree_method_structural_navNtB7_9TreeCountNtB7_13TreeTraversal20par_how_many_rolesets_0B7_
FN:310,_RNCNvXs0_Cs22gWgzn6ZqV_31indextree_method_structural_navNtB7_9TreeCountNtB7_13TreeTraversal22par_find_first_rolesets0_0B7_
FN:502,_RNCNvXs3_Cs22gWgzn6ZqV_31indextree_method_structural_navNtB7_4TreeNtB7_13TreeTraversal12par_how_many0B7_
FN:445,_RNCNvXs3_Cs22gWgzn6ZqV_31indextree_method_structural_navNtB7_4TreeNtB7_13TreeTraversal14par_find_first0B7_
FN:427,_RNCNvXs3_Cs22gWgzn6ZqV_31indextree_method_structural_navNtB7_4TreeNtB7_13TreeTraversal14par_iter_leafs0B7_
FN:577,_RNCNvXs3_Cs22gWgzn6ZqV_31indextree_method_structural_navNtB7_4TreeNtB7_13TreeTraversal20par_how_many_rolesets_0B7_
FN:468,_RNCNvXs3_Cs22gWgzn6ZqV_31indextree_method_structural_navNtB7_4TreeNtB7_13TreeTraversal22par_find_first_rolesets0_0B7_
FN:260,_RNCNvXs0_Cs22gWgzn6ZqV_31indextree_method_structural_navNtB7_9TreeCountNtB7_13TreeTraversal16par_unique_roless_0B7_
FN:538,_RNCNvXs3_Cs22gWgzn6ZqV_31indextree_method_structural_navNtB7_4TreeNtB7_13TreeTraversal16par_unique_roless_0B7_
FN:54,_RNvXCs22gWgzn6ZqV_31indextree_method_structural_navNtB2_9NodeCountNtNtB2_13indextree_ext7HasRole7roleset
FN:356,_RNvXs1_Cs22gWgzn6ZqV_31indextree_method_structural_navNtB5_4NodeNtNtB5_13indextree_ext7HasRole7roleset
FN:175,_RNCNvXs0_Cs22gWgzn6ZqV_31indextree_method_structural_navNtB7_9TreeCountNtB7_13TreeTraversal14par_iter_leafs0B7_
FN:207,_RNCNvXs0_Cs22gWgzn6ZqV_31indextree_method_structural_navNtB7_9TreeCountNtB7_13TreeTraversal20par_how_many_roleset0B7_
FN:298,_RNCNvXs0_Cs22gWgzn6ZqV_31indextree_method_structural_navNtB7_9TreeCountNtB7_13TreeTraversal22par_find_first_roleset0B7_
FN:566,_RNCNvXs3_Cs22gWgzn6ZqV_31indextree_method_structural_navNtB7_4TreeNtB7_13TreeTraversal20par_how_many_roleset0B7_
FN:456,_RNCNvXs3_Cs22gWgzn6ZqV_31indextree_method_structural_navNtB7_4TreeNtB7_13TreeTraversal22par_find_first_roleset0B7_
FN:46,_RINvXs0_NvXNvCs22gWgzn6ZqV_31indextree_method_structural_nav1__NtBb_9NodeCountNtNtCsgwkn3kcQmDy_5serde2de11Deserialize11deserializeNtB6_9___VisitorNtB1g_7Visitor9visit_mappEBb_
FN:46,_RINvXs0_NvXNvCs22gWgzn6ZqV_31indextree_method_structural_nav1__NtBb_9NodeCountNtNtCsgwkn3kcQmDy_5serde2de11Deserialize11deserializeNtB6_9___VisitorNtB1g_7Visitor9visit_seqpEBb_
FN:341,_RINvXs0_NvXNvCs22gWgzn6ZqV_31indextree_method_structural_navs0_1__NtBb_9TreeCountNtNtCsgwkn3kcQmDy_5serde2de11Deserialize11deserializeNtB6_9___VisitorNtB1j_7Visitor9visit_mappEBb_
FN:341,_RINvXs0_NvXNvCs22gWgzn6ZqV_31indextree_method_structural_navs0_1__NtBb_9TreeCountNtNtCsgwkn3kcQmDy_5serde2de11Deserialize11deserializeNtB6_9___VisitorNtB1j_7Visitor9visit_seqpEBb_
FN:348,_RINvXs0_NvXNvCs22gWgzn6ZqV_31indextree_method_structural_navs2_1__NtBb_4NodeNtNtCsgwkn3kcQmDy_5serde2de11Deserialize11deserializeNtB6_9___VisitorNtB1e_7Visitor9visit_mappEBb_
FN:348,_RINvXs0_NvXNvCs22gWgzn6ZqV_31indextree_method_structural_navs2_1__NtBb_4NodeNtNtCsgwkn3kcQmDy_5serde2de11Deserialize11deserializeNtB6_9___VisitorNtB1e_7Visitor9visit_seqpEBb_
FN:377,_RINvXs0_NvXNvCs22gWgzn6ZqV_31indextree_method_structural_navs4_1__NtBb_4TreeNtNtCsgwkn3kcQmDy_5serde2de11Deserialize11deserializeNtB6_9___VisitorNtB1e_7Visitor9visit_mappEBb_
FN:377,_RINvXs0_NvXNvCs22gWgzn6ZqV_31indextree_method_structural_navs4_1__NtBb_4TreeNtNtCsgwkn3kcQmDy_5serde2de11Deserialize11deserializeNtB6_9___VisitorNtB1e_7Visitor9visit_seqpEBb_
FN:46,_RINvXs_NvXNvCs22gWgzn6ZqV_31indextree_method_structural_nav1__NtBa_9NodeCountNtNtCsgwkn3kcQmDy_5serde2de11Deserialize11deserializeNtB5_7___FieldB1d_11deserializepEBa_
FN:341,_RINvXs_NvXNvCs22gWgzn6ZqV_31indextree_method_structural_navs0_1__NtBa_9TreeCountNtNtCsgwkn3kcQmDy_5serde2de11Deserialize11deserializeNtB5_7___FieldB1g_11deserializepEBa_
FN:348,_RINvXs_NvXNvCs22gWgzn6ZqV_31indextree_method_structural_navs2_1__NtBa_4NodeNtNtCsgwkn3kcQmDy_5serde2de11Deserialize11deserializeNtB5_7___FieldB1b_11deserializepEBa_
FN:377,_RINvXs_NvXNvCs22gWgzn6ZqV_31indextree_method_structural_navs4_1__NtBa_4TreeNtNtCsgwkn3kcQmDy_5serde2de11Deserialize11deserializeNtB5_7___FieldB1b_11deserializepEBa_
FN:46,_RNvXNvXNvCs22gWgzn6ZqV_31indextree_method_structural_nav1__NtB7_9NodeCountNtNtCsgwkn3kcQmDy_5serde2de11Deserialize11deserializeNtB2_14___FieldVisitorNtB1c_7Visitor9expecting
FN:341,_RNvXNvXNvCs22gWgzn6ZqV_31indextree_method_structural_navs0_1__NtB7_9TreeCountNtNtCsgwkn3kcQmDy_5serde2de11Deserialize11deserializeNtB2_14___FieldVisitorNtB1f_7Visitor9expecting
FN:348,_RNvXNvXNvCs22gWgzn6ZqV_31indextree_method_structural_navs2_1__NtB7_4NodeNtNtCsgwkn3kcQmDy_5serde2de11Deserialize11deserializeNtB2_14___FieldVisitorNtB1a_7Visitor9expecting
FN:377,_RNvXNvXNvCs22gWgzn6ZqV_31indextree_method_structural_navs4_1__NtB7_4TreeNtNtCsgwkn3kcQmDy_5serde2de11Deserialize11deserializeNtB2_14___FieldVisitorNtB1a_7Visitor9expecting
FN:586,_RNvXNvXNvCs22gWgzn6ZqV_31indextree_method_structural_navs7_1__NtB7_8A11yNodeNtNtCsgwkn3kcQmDy_5serde2de11Deserialize11deserializeNtB2_14___FieldVisitorNtB1e_7Visitor9expecting
FN:334,_RNvXs0_Cs22gWgzn6ZqV_31indextree_method_structural_navNtB5_9TreeCountNtB5_13TreeTraversal5nodes
FN:46,_RNvXs0_NvXNvCs22gWgzn6ZqV_31indextree_method_structural_nav1__NtBa_9NodeCountNtNtCsgwkn3kcQmDy_5serde2de11Deserialize11deserializeNtB5_9___VisitorNtB1f_7Visitor9expecting
FN:341,_RNvXs0_NvXNvCs22gWgzn6ZqV_31indextree_method_structural_navs0_1__NtBa_9TreeCountNtNtCsgwkn3kcQmDy_5serde2de11Deserialize11deserializeNtB5_9___VisitorNtB1i_7Visitor9expecting
FN:348,_RNvXs0_NvXNvCs22gWgzn6ZqV_31indextree_method_structural_navs2_1__NtBa_4NodeNtNtCsgwkn3kcQmDy_5serde2de11Deserialize11deserializeNtB5_9___VisitorNtB1d_7Visitor9expecting
FN:377,_RNvXs0_NvXNvCs22gWgzn6ZqV_31indextree_method_structural_navs4_1__NtBa_4TreeNtNtCsgwkn3kcQmDy_5serde2de11Deserialize11deserializeNtB5_9___VisitorNtB1d_7Visitor9expecting
FN:429,_RNvXs3_Cs22gWgzn6ZqV_31indextree_method_structural_navNtB5_4TreeNtB5_13TreeTraversal5nodes
FN:264,_RNCNvXs0_Cs22gWgzn6ZqV_31indextree_method_structural_navNtB7_9TreeCountNtB7_13TreeTraversal16par_unique_roless1_0B7_
FN:264,_RNCNvXs0_Cs22gWgzn6ZqV_31indextree_method_structural_navNtB7_9TreeCountNtB7_13TreeTraversal16par_unique_roless2_0B7_
FN:542,_RNCNvXs3_Cs22gWgzn6ZqV_31indextree_method_structural_navNtB7_4TreeNtB7_13TreeTraversal16par_unique_roless1_0B7_
FN:542,_RNCNvXs3_Cs22gWgzn6ZqV_31indextree_method_structural_navNtB7_4TreeNtB7_13TreeTraversal16par_unique_roless2_0B7_
FNDA:0,_RNCNvXs0_Csfw8KLZzEbVr_31indextree_method_structural_navNtB7_9TreeCountNtB7_13TreeTraversal16par_unique_roless_0B7_
FNDA:0,_RNCNvXs3_Csfw8KLZzEbVr_31indextree_method_structural_navNtB7_4TreeNtB7_13TreeTraversal16par_unique_roless_0B7_
FNDA:0,_RNCNvXs0_Csfw8KLZzEbVr_31indextree_method_structural_navNtB7_9TreeCountNtB7_13TreeTraversal22par_find_first_rolesets_0B7_
FNDA:0,_RNCNvXs3_Csfw8KLZzEbVr_31indextree_method_structural_navNtB7_4TreeNtB7_13TreeTraversal22par_find_first_rolesets_0B7_
FNDA:0,_RNCNvXs0_Csfw8KLZzEbVr_31indextree_method_structural_navNtB7_9TreeCountNtB7_13TreeTraversal12par_how_many0B7_
FNDA:0,_RNCNvXs0_Csfw8KLZzEbVr_31indextree_method_structural_navNtB7_9TreeCountNtB7_13TreeTraversal20par_how_many_rolesets_0B7_
FNDA:0,_RNCNvXs3_Csfw8KLZzEbVr_31indextree_method_structural_navNtB7_4TreeNtB7_13TreeTraversal12par_how_many0B7_
FNDA:0,_RNCNvXs3_Csfw8KLZzEbVr_31indextree_method_structural_navNtB7_4TreeNtB7_13TreeTraversal20par_how_many_rolesets_0B7_
FNDA:0,_RNCNvXs0_Csfw8KLZzEbVr_31indextree_method_structural_navNtB7_9TreeCountNtB7_13TreeTraversal16par_unique_roless1_0B7_
FNDA:0,_RNCNvXs0_Csfw8KLZzEbVr_31indextree_method_structural_navNtB7_9TreeCountNtB7_13TreeTraversal16par_unique_roless2_0B7_
FNDA:0,_RNCNvXs0_Csfw8KLZzEbVr_31indextree_method_structural_navNtB7_9TreeCountNtB7_13TreeTraversal20par_how_many_roleset0B7_
FNDA:0,_RNCNvXs0_Csfw8KLZzEbVr_31indextree_method_structural_navNtB7_9TreeCountNtB7_13TreeTraversal22par_find_first_roleset0B7_
FNDA:0,_RNCNvXs3_Csfw8KLZzEbVr_31indextree_method_structural_navNtB7_4TreeNtB7_13TreeTraversal16par_unique_roless1_0B7_
FNDA:0,_RNCNvXs3_Csfw8KLZzEbVr_31indextree_method_structural_navNtB7_4TreeNtB7_13TreeTraversal16par_unique_roless2_0B7_
FNDA:0,_RNCNvXs3_Csfw8KLZzEbVr_31indextree_method_structural_navNtB7_4TreeNtB7_13TreeTraversal20par_how_many_roleset0B7_
FNDA:0,_RNCNvXs3_Csfw8KLZzEbVr_31indextree_method_structural_navNtB7_4TreeNtB7_13TreeTraversal22par_find_first_roleset0B7_
FNDA:0,_RNvXCsfw8KLZzEbVr_31indextree_method_structural_navNtB2_9NodeCountNtNtB2_13indextree_ext7HasRole7roleset
FNDA:0,_RNvXs1_Csfw8KLZzEbVr_31indextree_method_structural_navNtB5_4NodeNtNtB5_13indextree_ext7HasRole7roleset
FNDA:0,_RNCNCNvXs0_Csfw8KLZzEbVr_31indextree_method_structural_navNtB9_9TreeCountNtB9_13TreeTraversal10find_first00B9_
FNDA:0,_RNCNCNvXs0_Csfw8KLZzEbVr_31indextree_method_structural_navNtB9_9TreeCountNtB9_13TreeTraversal18find_first_roleset00B9_
FNDA:0,_RNCNCNvXs0_Csfw8KLZzEbVr_31indextree_method_structural_navNtB9_9TreeCountNtB9_13TreeTraversal20par_how_many_roleset00B9_
FNDA:0,_RNCNCNvXs0_Csfw8KLZzEbVr_31indextree_method_structural_navNtB9_9TreeCountNtB9_13TreeTraversal22par_find_first_roleset00B9_
FNDA:0,_RNCNCNvXs3_Csfw8KLZzEbVr_31indextree_method_structural_navNtB9_4TreeNtB9_13TreeTraversal10find_first00B9_
FNDA:0,_RNCNCNvXs3_Csfw8KLZzEbVr_31indextree_method_structural_navNtB9_4TreeNtB9_13TreeTraversal18find_first_roleset00B9_
FNDA:0,_RNCNCNvXs3_Csfw8KLZzEbVr_31indextree_method_structural_navNtB9_4TreeNtB9_13TreeTraversal20par_how_many_roleset00B9_
FNDA:0,_RNCNCNvXs3_Csfw8KLZzEbVr_31indextree_method_structural_navNtB9_4TreeNtB9_13TreeTraversal22par_find_first_roleset00B9_
FNDA:0,_RNCNvXs0_Csfw8KLZzEbVr_31indextree_method_structural_navNtB7_9TreeCountNtB7_13TreeTraversal10find_first0B7_
FNDA:0,_RNCNvXs0_Csfw8KLZzEbVr_31indextree_method_structural_navNtB7_9TreeCountNtB7_13TreeTraversal12unique_roles0B7_
FNDA:0,_RNCNvXs0_Csfw8KLZzEbVr_31indextree_method_structural_navNtB7_9TreeCountNtB7_13TreeTraversal12unique_roless0_0B7_
FNDA:0,_RNCNvXs0_Csfw8KLZzEbVr_31indextree_method_structural_navNtB7_9TreeCountNtB7_13TreeTraversal12unique_roless_0B7_
FNDA:0,_RNCNvXs0_Csfw8KLZzEbVr_31indextree_method_structural_navNtB7_9TreeCountNtB7_13TreeTraversal13par_max_depth0B7_
FNDA:0,_RNCNvXs0_Csfw8KLZzEbVr_31indextree_method_structural_navNtB7_9TreeCountNtB7_13TreeTraversal16find_first_stack0B7_
FNDA:0,_RNCNvXs0_Csfw8KLZzEbVr_31indextree_method_structural_navNtB7_9TreeCountNtB7_13TreeTraversal16find_first_stacks_0B7_
FNDA:0,_RNCNvXs0_Csfw8KLZzEbVr_31indextree_method_structural_navNtB7_9TreeCountNtB7_13TreeTraversal16how_many_roleset0B7_
FNDA:0,_RNCNvXs0_Csfw8KLZzEbVr_31indextree_method_structural_navNtB7_9TreeCountNtB7_13TreeTraversal16par_unique_roles0B7_
FNDA:0,_RNCNvXs0_Csfw8KLZzEbVr_31indextree_method_structural_navNtB7_9TreeCountNtB7_13TreeTraversal16par_unique_roless0_0B7_
FNDA:0,_RNCNvXs0_Csfw8KLZzEbVr_31indextree_method_structural_navNtB7_9TreeCountNtB7_13TreeTraversal18find_first_roleset0B7_
FNDA:0,_RNCNvXs0_Csfw8KLZzEbVr_31indextree_method_structural_navNtB7_9TreeCountNtB7_13TreeTraversal8how_many0B7_
FNDA:0,_RNCNvXs0_Csfw8KLZzEbVr_31indextree_method_structural_navNtB7_9TreeCountNtB7_13TreeTraversal8how_manys_0B7_
FNDA:0,_RNCNvXs3_Csfw8KLZzEbVr_31indextree_method_structural_navNtB7_4TreeNtB7_13TreeTraversal10find_first0B7_
FNDA:0,_RNCNvXs3_Csfw8KLZzEbVr_31indextree_method_structural_navNtB7_4TreeNtB7_13TreeTraversal12unique_roles0B7_
FNDA:0,_RNCNvXs3_Csfw8KLZzEbVr_31indextree_method_structural_navNtB7_4TreeNtB7_13TreeTraversal12unique_roless0_0B7_
FNDA:0,_RNCNvXs3_Csfw8KLZzEbVr_31indextree_method_structural_navNtB7_4TreeNtB7_13TreeTraversal12unique_roless_0B7_
FNDA:0,_RNCNvXs3_Csfw8KLZzEbVr_31indextree_method_structural_navNtB7_4TreeNtB7_13TreeTraversal13par_max_depth0B7_
FNDA:0,_RNCNvXs3_Csfw8KLZzEbVr_31indextree_method_structural_navNtB7_4TreeNtB7_13TreeTraversal16find_first_stack0B7_
FNDA:0,_RNCNvXs3_Csfw8KLZzEbVr_31indextree_method_structural_navNtB7_4TreeNtB7_13TreeTraversal16find_first_stacks_0B7_
FNDA:0,_RNCNvXs3_Csfw8KLZzEbVr_31indextree_method_structural_navNtB7_4TreeNtB7_13TreeTraversal16how_many_roleset0B7_
FNDA:0,_RNCNvXs3_Csfw8KLZzEbVr_31indextree_method_structural_navNtB7_4TreeNtB7_13TreeTraversal16par_unique_roles0B7_
FNDA:0,_RNCNvXs3_Csfw8KLZzEbVr_31indextree_method_structural_navNtB7_4TreeNtB7_13TreeTraversal16par_unique_roless0_0B7_
FNDA:0,_RNCNvXs3_Csfw8KLZzEbVr_31indextree_method_structural_navNtB7_4TreeNtB7_13TreeTraversal18find_first_roleset0B7_
FNDA:0,_RNCNvXs3_Csfw8KLZzEbVr_31indextree_method_structural_navNtB7_4TreeNtB7_13TreeTraversal8how_many0B7_
FNDA:0,_RNCNvXs3_Csfw8KLZzEbVr_31indextree_method_structural_navNtB7_4TreeNtB7_13TreeTraversal8how_manys_0B7_
FNDA:0,_RNvMs2_Csfw8KLZzEbVr_31indextree_method_structural_navNtB5_4Node14from_a11y_node
FNDA:0,_RNvMs_Csfw8KLZzEbVr_31indextree_method_structural_navNtB4_9NodeCount14from_a11y_node
FNDA:0,_RNvXNvXNvCsfw8KLZzEbVr_31indextree_method_structural_nav1__NtB7_9NodeCountNtNtCsgwkn3kcQmDy_5serde2de11Deserialize11deserializeNtB2_14___FieldVisitorNtB1c_7Visitor9expecting
FNDA:0,_RNvXNvXNvCsfw8KLZzEbVr_31indextree_method_structural_navs0_1__NtB7_9TreeCountNtNtCsgwkn3kcQmDy_5serde2de11Deserialize11deserializeNtB2_14___FieldVisitorNtB1f_7Visitor9expecting
FNDA:0,_RNvXNvXNvCsfw8KLZzEbVr_31indextree_method_structural_navs2_1__NtB7_4NodeNtNtCsgwkn3kcQmDy_5serde2de11Deserialize11deserializeNtB2_14___FieldVisitorNtB1a_7Visitor9expecting
FNDA:0,_RNvXNvXNvCsfw8KLZzEbVr_31indextree_method_structural_navs4_1__NtB7_4TreeNtNtCsgwkn3kcQmDy_5serde2de11Deserialize11deserializeNtB2_14___FieldVisitorNtB1a_7Visitor9expecting
FNDA:0,_RNvXNvXNvCsfw8KLZzEbVr_31indextree_method_structural_navs7_1__NtB7_8A11yNodeNtNtCsgwkn3kcQmDy_5serde2de11Deserialize11deserializeNtB2_14___FieldVisitorNtB1e_7Visitor9expecting
FNDA:0,_RNvXs0_Csfw8KLZzEbVr_31indextree_method_structural_navNtB5_9TreeCountNtB5_13TreeTraversal10find_first
FNDA:0,_RNvXs0_Csfw8KLZzEbVr_31indextree_method_structural_navNtB5_9TreeCountNtB5_13TreeTraversal12par_how_many
FNDA:0,_RNvXs0_Csfw8KLZzEbVr_31indextree_method_structural_navNtB5_9TreeCountNtB5_13TreeTraversal12unique_roles
FNDA:0,_RNvXs0_Csfw8KLZzEbVr_31indextree_method_structural_navNtB5_9TreeCountNtB5_13TreeTraversal13par_max_depth
FNDA:0,_RNvXs0_Csfw8KLZzEbVr_31indextree_method_structural_navNtB5_9TreeCountNtB5_13TreeTraversal14build_rolesets
FNDA:0,_RNvXs0_Csfw8KLZzEbVr_31indextree_method_structural_navNtB5_9TreeCountNtB5_13TreeTraversal14from_root_node
FNDA:0,_RNvXs0_Csfw8KLZzEbVr_31indextree_method_structural_navNtB5_9TreeCountNtB5_13TreeTraversal14par_find_first
FNDA:0,_RNvXs0_Csfw8KLZzEbVr_31indextree_method_structural_navNtB5_9TreeCountNtB5_13TreeTraversal16find_first_stack
FNDA:0,_RNvXs0_Csfw8KLZzEbVr_31indextree_method_structural_navNtB5_9TreeCountNtB5_13TreeTraversal16how_many_roleset
FNDA:0,_RNvXs0_Csfw8KLZzEbVr_31indextree_method_structural_navNtB5_9TreeCountNtB5_13TreeTraversal16par_unique_roles
FNDA:0,_RNvXs0_Csfw8KLZzEbVr_31indextree_method_structural_navNtB5_9TreeCountNtB5_13TreeTraversal18find_first_roleset
FNDA:0,_RNvXs0_Csfw8KLZzEbVr_31indextree_method_structural_navNtB5_9TreeCountNtB5_13TreeTraversal20par_how_many_roleset
FNDA:0,_RNvXs0_Csfw8KLZzEbVr_31indextree_method_structural_navNtB5_9TreeCountNtB5_13TreeTraversal20unique_roles_roleset
FNDA:0,_RNvXs0_Csfw8KLZzEbVr_31indextree_method_structural_navNtB5_9TreeCountNtB5_13TreeTraversal22par_find_first_roleset
FNDA:0,_RNvXs0_Csfw8KLZzEbVr_31indextree_method_structural_navNtB5_9TreeCountNtB5_13TreeTraversal8how_many
FNDA:0,_RNvXs0_Csfw8KLZzEbVr_31indextree_method_structural_navNtB5_9TreeCountNtB5_13TreeTraversal9max_depth
FNDA:0,_RNvXs0_NvXNvCsfw8KLZzEbVr_31indextree_method_structural_nav1__NtBa_9NodeCountNtNtCsgwkn3kcQmDy_5serde2de11Deserialize11deserializeNtB5_9___VisitorNtB1f_7Visitor9expecting
FNDA:0,_RNvXs0_NvXNvCsfw8KLZzEbVr_31indextree_method_structural_navs0_1__NtBa_9TreeCountNtNtCsgwkn3kcQmDy_5serde2de11Deserialize11deserializeNtB5_9___VisitorNtB1i_7Visitor9expecting
FNDA:0,_RNvXs0_NvXNvCsfw8KLZzEbVr_31indextree_method_structural_navs2_1__NtBa_4NodeNtNtCsgwkn3kcQmDy_5serde2de11Deserialize11deserializeNtB5_9___VisitorNtB1d_7Visitor9expecting
FNDA:0,_RNvXs0_NvXNvCsfw8KLZzEbVr_31indextree_method_structural_navs4_1__NtBa_4TreeNtNtCsgwkn3kcQmDy_5serde2de11Deserialize11deserializeNtB5_9___VisitorNtB1d_7Visitor9expecting
FNDA:0,_RNvXs0_NvXNvCsfw8KLZzEbVr_31indextree_method_structural_navs7_1__NtBa_8A11yNodeNtNtCsgwkn3kcQmDy_5serde2de11Deserialize11deserializeNtB5_9___VisitorNtB1h_7Visitor9expecting
FNDA:0,_RNvXs3_Csfw8KLZzEbVr_31indextree_method_structural_navNtB5_4TreeNtB5_13TreeTraversal10find_first
FNDA:0,_RNvXs3_Csfw8KLZzEbVr_31indextree_method_structural_navNtB5_4TreeNtB5_13TreeTraversal12par_how_many
FNDA:0,_RNvXs3_Csfw8KLZzEbVr_31indextree_method_structural_navNtB5_4TreeNtB5_13TreeTraversal12unique_roles
FNDA:0,_RNvXs3_Csfw8KLZzEbVr_31indextree_method_structural_navNtB5_4TreeNtB5_13TreeTraversal13par_max_depth
FNDA:0,_RNvXs3_Csfw8KLZzEbVr_31indextree_method_structural_navNtB5_4TreeNtB5_13TreeTraversal14build_rolesets
FNDA:0,_RNvXs3_Csfw8KLZzEbVr_31indextree_method_structural_navNtB5_4TreeNtB5_13TreeTraversal14from_root_node
FNDA:0,_RNvXs3_Csfw8KLZzEbVr_31indextree_method_structural_navNtB5_4TreeNtB5_13TreeTraversal14par_find_first
FNDA:0,_RNvXs3_Csfw8KLZzEbVr_31indextree_method_structural_navNtB5_4TreeNtB5_13TreeTraversal16find_first_stack
FNDA:0,_RNvXs3_Csfw8KLZzEbVr_31indextree_method_structural_navNtB5_4TreeNtB5_13TreeTraversal16how_many_roleset
FNDA:0,_RNvXs3_Csfw8KLZzEbVr_31indextree_method_structural_navNtB5_4TreeNtB5_13TreeTraversal16par_unique_roles
FNDA:0,_RNvXs3_Csfw8KLZzEbVr_31indextree_method_structural_navNtB5_4TreeNtB5_13TreeTraversal18find_first_roleset
FNDA:0,_RNvXs3_Csfw8KLZzEbVr_31indextree_method_structural_navNtB5_4TreeNtB5_13TreeTraversal20par_how_many_roleset
FNDA:0,_RNvXs3_Csfw8KLZzEbVr_31indextree_method_structural_navNtB5_4TreeNtB5_13TreeTraversal20unique_roles_roleset
FNDA:0,_RNvXs3_Csfw8KLZzEbVr_31indextree_method_structural_navNtB5_4TreeNtB5_13TreeTraversal22par_find_first_roleset
FNDA:0,_RNvXs3_Csfw8KLZzEbVr_31indextree_method_structural_navNtB5_4TreeNtB5_13TreeTraversal8how_many
FNDA:0,_RNvXs3_Csfw8KLZzEbVr_31indextree_method_structural_navNtB5_4TreeNtB5_13TreeTraversal9max_depth
FNDA:0,_RNCNvXs0_Csfw8KLZzEbVr_31indextree_method_structural_navNtB7_9TreeCountNtB7_13TreeTraversal9max_depth0B7_
FNDA:0,_RNCNvXs3_Csfw8KLZzEbVr_31indextree_method_structural_navNtB7_4TreeNtB7_13TreeTraversal9max_depth0B7_
FNDA:0,_RNCNvXs0_Csfw8KLZzEbVr_31indextree_method_structural_navNtB7_9TreeCountNtB7_13TreeTraversal14par_find_first0B7_
FNDA:0,_RNCNvXs0_Csfw8KLZzEbVr_31indextree_method_structural_navNtB7_9TreeCountNtB7_13TreeTraversal22par_find_first_rolesets0_0B7_
FNDA:0,_RNCNvXs3_Csfw8KLZzEbVr_31indextree_method_structural_navNtB7_4TreeNtB7_13TreeTraversal14par_find_first0B7_
FNDA:0,_RNCNvXs3_Csfw8KLZzEbVr_31indextree_method_structural_navNtB7_4TreeNtB7_13TreeTraversal22par_find_first_rolesets0_0B7_
FNDA:0,_RINvXs0_NvXNvCsfw8KLZzEbVr_31indextree_method_structural_nav1__NtBb_9NodeCountNtNtCsgwkn3kcQmDy_5serde2de11Deserialize11deserializeNtB6_9___VisitorNtB1g_7Visitor9visit_mappEBb_
FNDA:0,_RINvXs0_NvXNvCsfw8KLZzEbVr_31indextree_method_structural_nav1__NtBb_9NodeCountNtNtCsgwkn3kcQmDy_5serde2de11Deserialize11deserializeNtB6_9___VisitorNtB1g_7Visitor9visit_seqpEBb_
FNDA:0,_RINvXs0_NvXNvCsfw8KLZzEbVr_31indextree_method_structural_navs0_1__NtBb_9TreeCountNtNtCsgwkn3kcQmDy_5serde2de11Deserialize11deserializeNtB6_9___VisitorNtB1j_7Visitor9visit_mappEBb_
FNDA:0,_RINvXs0_NvXNvCsfw8KLZzEbVr_31indextree_method_structural_navs0_1__NtBb_9TreeCountNtNtCsgwkn3kcQmDy_5serde2de11Deserialize11deserializeNtB6_9___VisitorNtB1j_7Visitor9visit_seqpEBb_
FNDA:0,_RINvXs0_NvXNvCsfw8KLZzEbVr_31indextree_method_structural_navs2_1__NtBb_4NodeNtNtCsgwkn3kcQmDy_5serde2de11Deserialize11deserializeNtB6_9___VisitorNtB1e_7Visitor9visit_mappEBb_
FNDA:0,_RINvXs0_NvXNvCsfw8KLZzEbVr_31indextree_method_structural_navs2_1__NtBb_4NodeNtNtCsgwkn3kcQmDy_5serde2de11Deserialize11deserializeNtB6_9___VisitorNtB1e_7Visitor9visit_seqpEBb_
FNDA:0,_RINvXs0_NvXNvCsfw8KLZzEbVr_31indextree_method_structural_navs4_1__NtBb_4TreeNtNtCsgwkn3kcQmDy_5serde2de11Deserialize11deserializeNtB6_9___VisitorNtB1e_7Visitor9visit_mappEBb_
FNDA:0,_RINvXs0_NvXNvCsfw8KLZzEbVr_31indextree_method_structural_navs4_1__NtBb_4TreeNtNtCsgwkn3kcQmDy_5serde2de11Deserialize11deserializeNtB6_9___VisitorNtB1e_7Visitor9visit_seqpEBb_
FNDA:0,_RINvXs0_NvXNvCsfw8KLZzEbVr_31indextree_method_structural_navs7_1__NtBb_8A11yNodeNtNtCsgwkn3kcQmDy_5serde2de11Deserialize11deserializeNtB6_9___VisitorNtB1i_7Visitor9visit_mappEBb_
FNDA:0,_RINvXs0_NvXNvCsfw8KLZzEbVr_31indextree_method_structural_navs7_1__NtBb_8A11yNodeNtNtCsgwkn3kcQmDy_5serde2de11Deserialize11deserializeNtB6_9___VisitorNtB1i_7Visitor9visit_seqpEBb_
FNDA:0,_RINvXs_NvXNvCsfw8KLZzEbVr_31indextree_method_structural_nav1__NtBa_9NodeCountNtNtCsgwkn3kcQmDy_5serde2de11Deserialize11deserializeNtB5_7___FieldB1d_11deserializepEBa_
FNDA:0,_RINvXs_NvXNvCsfw8KLZzEbVr_31indextree_method_structural_navs0_1__NtBa_9TreeCountNtNtCsgwkn3kcQmDy_5serde2de11Deserialize11deserializeNtB5_7___FieldB1g_11deserializepEBa_
FNDA:0,_RINvXs_NvXNvCsfw8KLZzEbVr_31indextree_method_structural_navs2_1__NtBa_4NodeNtNtCsgwkn3kcQmDy_5serde2de11Deserialize11deserializeNtB5_7___FieldB1b_11deserializepEBa_
FNDA:0,_RINvXs_NvXNvCsfw8KLZzEbVr_31indextree_method_structural_navs4_1__NtBa_4TreeNtNtCsgwkn3kcQmDy_5serde2de11Deserialize11deserializeNtB5_7___FieldB1b_11deserializepEBa_
FNDA:0,_RINvXs_NvXNvCsfw8KLZzEbVr_31indextree_method_structural_navs7_1__NtBa_8A11yNodeNtNtCsgwkn3kcQmDy_5serde2de11Deserialize11deserializeNtB5_7___FieldB1f_11deserializepEBa_
FNDA:0,_RNCNvXs0_Csfw8KLZzEbVr_31indextree_method_structural_navNtB7_9TreeCountNtB7_13TreeTraversal10iter_leafs0B7_
FNDA:0,_RNCNvXs0_Csfw8KLZzEbVr_31indextree_method_structural_navNtB7_9TreeCountNtB7_13TreeTraversal14par_iter_leafs0B7_
FNDA:0,_RNCNvXs3_Csfw8KLZzEbVr_31indextree_method_structural_navNtB7_4TreeNtB7_13TreeTraversal10iter_leafs0B7_
FNDA:0,_RNCNvXs3_Csfw8KLZzEbVr_31indextree_method_structural_navNtB7_4TreeNtB7_13TreeTraversal14par_iter_leafs0B7_
FNDA:0,_RNvXs0_Csfw8KLZzEbVr_31indextree_method_structural_navNtB5_9TreeCountNtB5_13TreeTraversal10iter_leafs
FNDA:0,_RNvXs0_Csfw8KLZzEbVr_31indextree_method_structural_navNtB5_9TreeCountNtB5_13TreeTraversal14par_iter_leafs
FNDA:0,_RNvXs0_Csfw8KLZzEbVr_31indextree_method_structural_navNtB5_9TreeCountNtB5_13TreeTraversal5nodes
FNDA:0,_RNvXs3_Csfw8KLZzEbVr_31indextree_method_structural_navNtB5_4TreeNtB5_13TreeTraversal10iter_leafs
FNDA:0,_RNvXs3_Csfw8KLZzEbVr_31indextree_method_structural_navNtB5_4TreeNtB5_13TreeTraversal14par_iter_leafs
FNDA:0,_RNvXs3_Csfw8KLZzEbVr_31indextree_method_structural_navNtB5_4TreeNtB5_13TreeTraversal5nodes
FNDA:31922020,_RNCNCNvXs0_Cs22gWgzn6ZqV_31indextree_method_structural_navNtB9_9TreeCountNtB9_13TreeTraversal10find_first00B9_
FNDA:171157,_RNCNCNvXs0_Cs22gWgzn6ZqV_31indextree_method_structural_navNtB9_9TreeCountNtB9_13TreeTraversal18find_first_roleset00B9_
FNDA:996362,_RNCNCNvXs0_Cs22gWgzn6ZqV_31indextree_method_structural_navNtB9_9TreeCountNtB9_13TreeTraversal20par_how_many_roleset00B9_
FNDA:478313,_RNCNCNvXs0_Cs22gWgzn6ZqV_31indextree_method_structural_navNtB9_9TreeCountNtB9_13TreeTraversal22par_find_first_roleset00B9_
FNDA:31922020,_RNCNCNvXs3_Cs22gWgzn6ZqV_31indextree_method_structural_navNtB9_4TreeNtB9_13TreeTraversal10find_first00B9_
FNDA:171157,_RNCNCNvXs3_Cs22gWgzn6ZqV_31indextree_method_structural_navNtB9_4TreeNtB9_13TreeTraversal18find_first_roleset00B9_
FNDA:996362,_RNCNCNvXs3_Cs22gWgzn6ZqV_31indextree_method_structural_navNtB9_4TreeNtB9_13TreeTraversal20par_how_many_roleset00B9_
FNDA:491181,_RNCNCNvXs3_Cs22gWgzn6ZqV_31indextree_method_structural_navNtB9_4TreeNtB9_13TreeTraversal22par_find_first_roleset00B9_
FNDA:31922020,_RNCNvXs0_Cs22gWgzn6ZqV_31indextree_method_structural_navNtB7_9TreeCountNtB7_13TreeTraversal10find_first0B7_
FNDA:170776,_RNCNvXs0_Cs22gWgzn6ZqV_31indextree_method_structural_navNtB7_9TreeCountNtB7_13TreeTraversal10iter_leafs0B7_
FNDA:170776,_RNCNvXs0_Cs22gWgzn6ZqV_31indextree_method_structural_navNtB7_9TreeCountNtB7_13TreeTraversal12unique_roles0B7_
FNDA:170776,_RNCNvXs0_Cs22gWgzn6ZqV_31indextree_method_structural_navNtB7_9TreeCountNtB7_13TreeTraversal12unique_roless0_0B7_
FNDA:170776,_RNCNvXs0_Cs22gWgzn6ZqV_31indextree_method_structural_navNtB7_9TreeCountNtB7_13TreeTraversal12unique_roless_0B7_
FNDA:341552,_RNCNvXs0_Cs22gWgzn6ZqV_31indextree_method_structural_navNtB7_9TreeCountNtB7_13TreeTraversal13par_max_depth0B7_
FNDA:426798,_RNCNvXs0_Cs22gWgzn6ZqV_31indextree_method_structural_navNtB7_9TreeCountNtB7_13TreeTraversal16find_first_stack0B7_
FNDA:207994,_RNCNvXs0_Cs22gWgzn6ZqV_31indextree_method_structural_navNtB7_9TreeCountNtB7_13TreeTraversal16find_first_stacks_0B7_
FNDA:477120,_RNCNvXs0_Cs22gWgzn6ZqV_31indextree_method_structural_navNtB7_9TreeCountNtB7_13TreeTraversal16how_many_roleset0B7_
FNDA:512328,_RNCNvXs0_Cs22gWgzn6ZqV_31indextree_method_structural_navNtB7_9TreeCountNtB7_13TreeTraversal16par_unique_roles0B7_
FNDA:512328,_RNCNvXs0_Cs22gWgzn6ZqV_31indextree_method_structural_navNtB7_9TreeCountNtB7_13TreeTraversal16par_unique_roless0_0B7_
FNDA:171157,_RNCNvXs0_Cs22gWgzn6ZqV_31indextree_method_structural_navNtB7_9TreeCountNtB7_13TreeTraversal18find_first_roleset0B7_
FNDA:171264,_RNCNvXs0_Cs22gWgzn6ZqV_31indextree_method_structural_navNtB7_9TreeCountNtB7_13TreeTraversal22par_find_first_rolesets_0B7_
FNDA:22200880,_RNCNvXs0_Cs22gWgzn6ZqV_31indextree_method_structural_navNtB7_9TreeCountNtB7_13TreeTraversal8how_many0B7_
FNDA:22200880,_RNCNvXs0_Cs22gWgzn6ZqV_31indextree_method_structural_navNtB7_9TreeCountNtB7_13TreeTraversal8how_manys_0B7_
FNDA:170776,_RNCNvXs0_Cs22gWgzn6ZqV_31indextree_method_structural_navNtB7_9TreeCountNtB7_13TreeTraversal9max_depth0B7_
FNDA:31922020,_RNCNvXs3_Cs22gWgzn6ZqV_31indextree_method_structural_navNtB7_4TreeNtB7_13TreeTraversal10find_first0B7_
FNDA:170776,_RNCNvXs3_Cs22gWgzn6ZqV_31indextree_method_structural_navNtB7_4TreeNtB7_13TreeTraversal10iter_leafs0B7_
FNDA:341552,_RNCNvXs3_Cs22gWgzn6ZqV_31indextree_method_structural_navNtB7_4TreeNtB7_13TreeTraversal12unique_roles0B7_
FNDA:341552,_RNCNvXs3_Cs22gWgzn6ZqV_31indextree_method_structural_navNtB7_4TreeNtB7_13TreeTraversal12unique_roless0_0B7_
FNDA:341552,_RNCNvXs3_Cs22gWgzn6ZqV_31indextree_method_structural_navNtB7_4TreeNtB7_13TreeTraversal12unique_roless_0B7_
FNDA:170776,_RNCNvXs3_Cs22gWgzn6ZqV_31indextree_method_structural_navNtB7_4TreeNtB7_13TreeTraversal13par_max_depth0B7_
FNDA:426798,_RNCNvXs3_Cs22gWgzn6ZqV_31indextree_method_structural_navNtB7_4TreeNtB7_13TreeTraversal16find_first_stack0B7_
FNDA:207994,_RNCNvXs3_Cs22gWgzn6ZqV_31indextree_method_structural_navNtB7_4TreeNtB7_13TreeTraversal16find_first_stacks_0B7_
FNDA:477120,_RNCNvXs3_Cs22gWgzn6ZqV_31indextree_method_structural_navNtB7_4TreeNtB7_13TreeTraversal16how_many_roleset0B7_
FNDA:512328,_RNCNvXs3_Cs22gWgzn6ZqV_31indextree_method_structural_navNtB7_4TreeNtB7_13TreeTraversal16par_unique_roles0B7_
FNDA:512328,_RNCNvXs3_Cs22gWgzn6ZqV_31indextree_method_structural_navNtB7_4TreeNtB7_13TreeTraversal16par_unique_roless0_0B7_
FNDA:171157,_RNCNvXs3_Cs22gWgzn6ZqV_31indextree_method_structural_navNtB7_4TreeNtB7_13TreeTraversal18find_first_roleset0B7_
FNDA:171223,_RNCNvXs3_Cs22gWgzn6ZqV_31indextree_method_structural_navNtB7_4TreeNtB7_13TreeTraversal22par_find_first_rolesets_0B7_
FNDA:22200880,_RNCNvXs3_Cs22gWgzn6ZqV_31indextree_method_structural_navNtB7_4TreeNtB7_13TreeTraversal8how_many0B7_
FNDA:22200880,_RNCNvXs3_Cs22gWgzn6ZqV_31indextree_method_structural_navNtB7_4TreeNtB7_13TreeTraversal8how_manys_0B7_
FNDA:341552,_RNCNvXs3_Cs22gWgzn6ZqV_31indextree_method_structural_navNtB7_4TreeNtB7_13TreeTraversal9max_depth0B7_
FNDA:170776,_RNvMs2_Cs22gWgzn6ZqV_31indextree_method_structural_navNtB5_4Node14from_a11y_node
FNDA:170776,_RNvMs_Cs22gWgzn6ZqV_31indextree_method_structural_navNtB4_9NodeCount14from_a11y_node
FNDA:260,_RNvXs0_Cs22gWgzn6ZqV_31indextree_method_structural_navNtB5_9TreeCountNtB5_13TreeTraversal10find_first
FNDA:130,_RNvXs0_Cs22gWgzn6ZqV_31indextree_method_structural_navNtB5_9TreeCountNtB5_13TreeTraversal12par_how_many
FNDA:1,_RNvXs0_Cs22gWgzn6ZqV_31indextree_method_structural_navNtB5_9TreeCountNtB5_13TreeTraversal12unique_roles
FNDA:2,_RNvXs0_Cs22gWgzn6ZqV_31indextree_method_structural_navNtB5_9TreeCountNtB5_13TreeTraversal13par_max_depth
FNDA:1,_RNvXs0_Cs22gWgzn6ZqV_31indextree_method_structural_navNtB5_9TreeCountNtB5_13TreeTraversal14build_rolesets
FNDA:1,_RNvXs0_Cs22gWgzn6ZqV_31indextree_method_structural_navNtB5_9TreeCountNtB5_13TreeTraversal14from_root_node
FNDA:130,_RNvXs0_Cs22gWgzn6ZqV_31indextree_method_structural_navNtB5_9TreeCountNtB5_13TreeTraversal14par_find_first
FNDA:130,_RNvXs0_Cs22gWgzn6ZqV_31indextree_method_structural_navNtB5_9TreeCountNtB5_13TreeTraversal16find_first_stack
FNDA:130,_RNvXs0_Cs22gWgzn6ZqV_31indextree_method_structural_navNtB5_9TreeCountNtB5_13TreeTraversal16how_many_roleset
FNDA:3,_RNvXs0_Cs22gWgzn6ZqV_31indextree_method_structural_navNtB5_9TreeCountNtB5_13TreeTraversal16par_unique_roles
FNDA:130,_RNvXs0_Cs22gWgzn6ZqV_31indextree_method_structural_navNtB5_9TreeCountNtB5_13TreeTraversal18find_first_roleset
FNDA:130,_RNvXs0_Cs22gWgzn6ZqV_31indextree_method_structural_navNtB5_9TreeCountNtB5_13TreeTraversal20par_how_many_roleset
FNDA:2,_RNvXs0_Cs22gWgzn6ZqV_31indextree_method_structural_navNtB5_9TreeCountNtB5_13TreeTraversal20unique_roles_roleset
FNDA:130,_RNvXs0_Cs22gWgzn6ZqV_31indextree_method_structural_navNtB5_9TreeCountNtB5_13TreeTraversal22par_find_first_roleset
FNDA:130,_RNvXs0_Cs22gWgzn6ZqV_31indextree_method_structural_navNtB5_9TreeCountNtB5_13TreeTraversal8how_many
FNDA:1,_RNvXs0_Cs22gWgzn6ZqV_31indextree_method_structural_navNtB5_9TreeCountNtB5_13TreeTraversal9max_depth
FNDA:0,_RNvXs0_NvXNvCs22gWgzn6ZqV_31indextree_method_structural_navs7_1__NtBa_8A11yNodeNtNtCsgwkn3kcQmDy_5serde2de11Deserialize11deserializeNtB5_9___VisitorNtB1h_7Visitor9expecting
FNDA:260,_RNvXs3_Cs22gWgzn6ZqV_31indextree_method_structural_navNtB5_4TreeNtB5_13TreeTraversal10find_first
FNDA:130,_RNvXs3_Cs22gWgzn6ZqV_31indextree_method_structural_navNtB5_4TreeNtB5_13TreeTraversal12par_how_many
FNDA:2,_RNvXs3_Cs22gWgzn6ZqV_31indextree_method_structural_navNtB5_4TreeNtB5_13TreeTraversal12unique_roles
FNDA:1,_RNvXs3_Cs22gWgzn6ZqV_31indextree_method_structural_navNtB5_4TreeNtB5_13TreeTraversal13par_max_depth
FNDA:1,_RNvXs3_Cs22gWgzn6ZqV_31indextree_method_structural_navNtB5_4TreeNtB5_13TreeTraversal14build_rolesets
FNDA:1,_RNvXs3_Cs22gWgzn6ZqV_31indextree_method_structural_navNtB5_4TreeNtB5_13TreeTraversal14from_root_node
FNDA:130,_RNvXs3_Cs22gWgzn6ZqV_31indextree_method_structural_navNtB5_4TreeNtB5_13TreeTraversal14par_find_first
FNDA:130,_RNvXs3_Cs22gWgzn6ZqV_31indextree_method_structural_navNtB5_4TreeNtB5_13TreeTraversal16find_first_stack
FNDA:130,_RNvXs3_Cs22gWgzn6ZqV_31indextree_method_structural_navNtB5_4TreeNtB5_13TreeTraversal16how_many_roleset
FNDA:3,_RNvXs3_Cs22gWgzn6ZqV_31indextree_method_structural_navNtB5_4TreeNtB5_13TreeTraversal16par_unique_roles
FNDA:130,_RNvXs3_Cs22gWgzn6ZqV_31indextree_method_structural_navNtB5_4TreeNtB5_13TreeTraversal18find_first_roleset
FNDA:130,_RNvXs3_Cs22gWgzn6ZqV_31indextree_method_structural_navNtB5_4TreeNtB5_13TreeTraversal20par_how_many_roleset
FNDA:1,_RNvXs3_Cs22gWgzn6ZqV_31indextree_method_structural_navNtB5_4TreeNtB5_13TreeTraversal20unique_roles_roleset
FNDA:130,_RNvXs3_Cs22gWgzn6ZqV_31indextree_method_structural_navNtB5_4TreeNtB5_13TreeTraversal22par_find_first_roleset
FNDA:130,_RNvXs3_Cs22gWgzn6ZqV_31indextree_method_structural_navNtB5_4TreeNtB5_13TreeTraversal8how_many
FNDA:2,_RNvXs3_Cs22gWgzn6ZqV_31indextree_method_structural_navNtB5_4TreeNtB5_13TreeTraversal9max_depth
FNDA:1,_RNvXs0_Cs22gWgzn6ZqV_31indextree_method_structural_navNtB5_9TreeCountNtB5_13TreeTraversal10iter_leafs
FNDA:1,_RNvXs0_Cs22gWgzn6ZqV_31indextree_method_structural_navNtB5_9TreeCountNtB5_13TreeTraversal14par_iter_leafs
FNDA:1,_RNvXs3_Cs22gWgzn6ZqV_31indextree_method_structural_navNtB5_4TreeNtB5_13TreeTraversal10iter_leafs
FNDA:1,_RNvXs3_Cs22gWgzn6ZqV_31indextree_method_structural_navNtB5_4TreeNtB5_13TreeTraversal14par_iter_leafs
FNDA:0,_RINvXs0_NvXNvCs22gWgzn6ZqV_31indextree_method_structural_navs7_1__NtBb_8A11yNodeNtNtCsgwkn3kcQmDy_5serde2de11Deserialize11deserializeNtB6_9___VisitorNtB1i_7Visitor9visit_mapINtNtCskNM9RPplgwJ_10serde_json2de9MapAccessNtNtB2Q_4read7StrReadEEBb_
FNDA:0,_RINvXs0_NvXNvCs22gWgzn6ZqV_31indextree_method_structural_navs7_1__NtBb_8A11yNodeNtNtCsgwkn3kcQmDy_5serde2de11Deserialize11deserializeNtB6_9___VisitorNtB1i_7Visitor9visit_seqINtNtCskNM9RPplgwJ_10serde_json2de9SeqAccessNtNtB2Q_4read7StrReadEEBb_
FNDA:341552,_RINvXs_NvXNvCs22gWgzn6ZqV_31indextree_method_structural_navs7_1__NtBa_8A11yNodeNtNtCsgwkn3kcQmDy_5serde2de11Deserialize11deserializeNtB5_7___FieldB1f_11deserializeINtNtCskNM9RPplgwJ_10serde_json2de6MapKeyNtNtB2G_4read7StrReadEEBa_
FNDA:22200880,_RNCNvXs0_Cs22gWgzn6ZqV_31indextree_method_structural_navNtB7_9TreeCountNtB7_13TreeTraversal12par_how_many0B7_
FNDA:15965192,_RNCNvXs0_Cs22gWgzn6ZqV_31indextree_method_structural_navNtB7_9TreeCountNtB7_13TreeTraversal14par_find_first0B7_
FNDA:477120,_RNCNvXs0_Cs22gWgzn6ZqV_31indextree_method_structural_navNtB7_9TreeCountNtB7_13TreeTraversal20par_how_many_rolesets_0B7_
FNDA:171264,_RNCNvXs0_Cs22gWgzn6ZqV_31indextree_method_structural_navNtB7_9TreeCountNtB7_13TreeTraversal22par_find_first_rolesets0_0B7_
FNDA:22200880,_RNCNvXs3_Cs22gWgzn6ZqV_31indextree_method_structural_navNtB7_4TreeNtB7_13TreeTraversal12par_how_many0B7_
FNDA:15962817,_RNCNvXs3_Cs22gWgzn6ZqV_31indextree_method_structural_navNtB7_4TreeNtB7_13TreeTraversal14par_find_first0B7_
FNDA:170776,_RNCNvXs3_Cs22gWgzn6ZqV_31indextree_method_structural_navNtB7_4TreeNtB7_13TreeTraversal14par_iter_leafs0B7_
FNDA:477120,_RNCNvXs3_Cs22gWgzn6ZqV_31indextree_method_structural_navNtB7_4TreeNtB7_13TreeTraversal20par_how_many_rolesets_0B7_
FNDA:171223,_RNCNvXs3_Cs22gWgzn6ZqV_31indextree_method_structural_navNtB7_4TreeNtB7_13TreeTraversal22par_find_first_rolesets0_0B7_
FNDA:15745,_RNCNvXs0_Cs22gWgzn6ZqV_31indextree_method_structural_navNtB7_9TreeCountNtB7_13TreeTraversal16par_unique_roless_0B7_
FNDA:11963,_RNCNvXs3_Cs22gWgzn6ZqV_31indextree_method_structural_navNtB7_4TreeNtB7_13TreeTraversal16par_unique_roless_0B7_
FNDA:1171450,_RNvXCs22gWgzn6ZqV_31indextree_method_structural_navNtB2_9NodeCountNtNtB2_13indextree_ext7HasRole7roleset
FNDA:1171450,_RNvXs1_Cs22gWgzn6ZqV_31indextree_method_structural_navNtB5_4NodeNtNtB5_13indextree_ext7HasRole7roleset
FNDA:170776,_RNCNvXs0_Cs22gWgzn6ZqV_31indextree_method_structural_navNtB7_9TreeCountNtB7_13TreeTraversal14par_iter_leafs0B7_
FNDA:477120,_RNCNvXs0_Cs22gWgzn6ZqV_31indextree_method_structural_navNtB7_9TreeCountNtB7_13TreeTraversal20par_how_many_roleset0B7_
FNDA:171367,_RNCNvXs0_Cs22gWgzn6ZqV_31indextree_method_structural_navNtB7_9TreeCountNtB7_13TreeTraversal22par_find_first_roleset0B7_
FNDA:477120,_RNCNvXs3_Cs22gWgzn6ZqV_31indextree_method_structural_navNtB7_4TreeNtB7_13TreeTraversal20par_how_many_roleset0B7_
FNDA:171340,_RNCNvXs3_Cs22gWgzn6ZqV_31indextree_method_structural_navNtB7_4TreeNtB7_13TreeTraversal22par_find_first_roleset0B7_
FNDA:0,_RINvXs0_NvXNvCs22gWgzn6ZqV_31indextree_method_structural_nav1__NtBb_9NodeCountNtNtCsgwkn3kcQmDy_5serde2de11Deserialize11deserializeNtB6_9___VisitorNtB1g_7Visitor9visit_mappEBb_
FNDA:0,_RINvXs0_NvXNvCs22gWgzn6ZqV_31indextree_method_structural_nav1__NtBb_9NodeCountNtNtCsgwkn3kcQmDy_5serde2de11Deserialize11deserializeNtB6_9___VisitorNtB1g_7Visitor9visit_seqpEBb_
FNDA:0,_RINvXs0_NvXNvCs22gWgzn6ZqV_31indextree_method_structural_navs0_1__NtBb_9TreeCountNtNtCsgwkn3kcQmDy_5serde2de11Deserialize11deserializeNtB6_9___VisitorNtB1j_7Visitor9visit_mappEBb_
FNDA:0,_RINvXs0_NvXNvCs22gWgzn6ZqV_31indextree_method_structural_navs0_1__NtBb_9TreeCountNtNtCsgwkn3kcQmDy_5serde2de11Deserialize11deserializeNtB6_9___VisitorNtB1j_7Visitor9visit_seqpEBb_
FNDA:0,_RINvXs0_NvXNvCs22gWgzn6ZqV_31indextree_method_structural_navs2_1__NtBb_4NodeNtNtCsgwkn3kcQmDy_5serde2de11Deserialize11deserializeNtB6_9___VisitorNtB1e_7Visitor9visit_mappEBb_
FNDA:0,_RINvXs0_NvXNvCs22gWgzn6ZqV_31indextree_method_structural_navs2_1__NtBb_4NodeNtNtCsgwkn3kcQmDy_5serde2de11Deserialize11deserializeNtB6_9___VisitorNtB1e_7Visitor9visit_seqpEBb_
FNDA:0,_RINvXs0_NvXNvCs22gWgzn6ZqV_31indextree_method_structural_navs4_1__NtBb_4TreeNtNtCsgwkn3kcQmDy_5serde2de11Deserialize11deserializeNtB6_9___VisitorNtB1e_7Visitor9visit_mappEBb_
FNDA:0,_RINvXs0_NvXNvCs22gWgzn6ZqV_31indextree_method_structural_navs4_1__NtBb_4TreeNtNtCsgwkn3kcQmDy_5serde2de11Deserialize11deserializeNtB6_9___VisitorNtB1e_7Visitor9visit_seqpEBb_
FNDA:0,_RINvXs_NvXNvCs22gWgzn6ZqV_31indextree_method_structural_nav1__NtBa_9NodeCountNtNtCsgwkn3kcQmDy_5serde2de11Deserialize11deserializeNtB5_7___FieldB1d_11deserializepEBa_
FNDA:0,_RINvXs_NvXNvCs22gWgzn6ZqV_31indextree_method_structural_navs0_1__NtBa_9TreeCountNtNtCsgwkn3kcQmDy_5serde2de11Deserialize11deserializeNtB5_7___FieldB1g_11deserializepEBa_
FNDA:0,_RINvXs_NvXNvCs22gWgzn6ZqV_31indextree_method_structural_navs2_1__NtBa_4NodeNtNtCsgwkn3kcQmDy_5serde2de11Deserialize11deserializeNtB5_7___FieldB1b_11deserializepEBa_
FNDA:0,_RINvXs_NvXNvCs22gWgzn6ZqV_31indextree_method_structural_navs4_1__NtBa_4TreeNtNtCsgwkn3kcQmDy_5serde2de11Deserialize11deserializeNtB5_7___FieldB1b_11deserializepEBa_
FNDA:0,_RNvXNvXNvCs22gWgzn6ZqV_31indextree_method_structural_nav1__NtB7_9NodeCountNtNtCsgwkn3kcQmDy_5serde2de11Deserialize11deserializeNtB2_14___FieldVisitorNtB1c_7Visitor9expecting
FNDA:0,_RNvXNvXNvCs22gWgzn6ZqV_31indextree_method_structural_navs0_1__NtB7_9TreeCountNtNtCsgwkn3kcQmDy_5serde2de11Deserialize11deserializeNtB2_14___FieldVisitorNtB1f_7Visitor9expecting
FNDA:0,_RNvXNvXNvCs22gWgzn6ZqV_31indextree_method_structural_navs2_1__NtB7_4NodeNtNtCsgwkn3kcQmDy_5serde2de11Deserialize11deserializeNtB2_14___FieldVisitorNtB1a_7Visitor9expecting
FNDA:0,_RNvXNvXNvCs22gWgzn6ZqV_31indextree_method_structural_navs4_1__NtB7_4TreeNtNtCsgwkn3kcQmDy_5serde2de11Deserialize11deserializeNtB2_14___FieldVisitorNtB1a_7Visitor9expecting
FNDA:0,_RNvXNvXNvCs22gWgzn6ZqV_31indextree_method_structural_navs7_1__NtB7_8A11yNodeNtNtCsgwkn3kcQmDy_5serde2de11Deserialize11deserializeNtB2_14___FieldVisitorNtB1e_7Visitor9expecting
FNDA:0,_RNvXs0_Cs22gWgzn6ZqV_31indextree_method_structural_navNtB5_9TreeCountNtB5_13TreeTraversal5nodes
FNDA:0,_RNvXs0_NvXNvCs22gWgzn6ZqV_31indextree_method_structural_nav1__NtBa_9NodeCountNtNtCsgwkn3kcQmDy_5serde2de11Deserialize11deserializeNtB5_9___VisitorNtB1f_7Visitor9expecting
FNDA:0,_RNvXs0_NvXNvCs22gWgzn6ZqV_31indextree_method_structural_navs0_1__NtBa_9TreeCountNtNtCsgwkn3kcQmDy_5serde2de11Deserialize11deserializeNtB5_9___VisitorNtB1i_7Visitor9expecting
FNDA:0,_RNvXs0_NvXNvCs22gWgzn6ZqV_31indextree_method_structural_navs2_1__NtBa_4NodeNtNtCsgwkn3kcQmDy_5serde2de11Deserialize11deserializeNtB5_9___VisitorNtB1d_7Visitor9expecting
FNDA:0,_RNvXs0_NvXNvCs22gWgzn6ZqV_31indextree_method_structural_navs4_1__NtBa_4TreeNtNtCsgwkn3kcQmDy_5serde2de11Deserialize11deserializeNtB5_9___VisitorNtB1d_7Visitor9expecting
FNDA:0,_RNvXs3_Cs22gWgzn6ZqV_31indextree_method_structural_navNtB5_4TreeNtB5_13TreeTraversal5nodes
FNDA:15745,_RNCNvXs0_Cs22gWgzn6ZqV_31indextree_method_structural_navNtB7_9TreeCountNtB7_13TreeTraversal16par_unique_roless1_0B7_
FNDA:31487,_RNCNvXs0_Cs22gWgzn6ZqV_31indextree_method_structural_navNtB7_9TreeCountNtB7_13TreeTraversal16par_unique_roless2_0B7_
FNDA:11963,_RNCNvXs3_Cs22gWgzn6ZqV_31indextree_method_structural_navNtB7_4TreeNtB7_13TreeTraversal16par_unique_roless1_0B7_
FNDA:23923,_RNCNvXs3_Cs22gWgzn6ZqV_31indextree_method_structural_navNtB7_4TreeNtB7_13TreeTraversal16par_unique_roless2_0B7_
FNF:112
FNH:101
DA:46,0
DA:54,1171450
DA:55,1171450
DA:56,1171450
DA:61,170776
DA:62,170776
DA:63,170776
DA:64,170776
DA:65,170776
DA:66,170776
DA:67,341551
DA:68,170775
DA:69,170775
DA:70,170775
DA:71,170776
DA:72,170776
DA:134,1
DA:135,170776
DA:136,170776
DA:137,170776
DA:138,170776
DA:139,170776
DA:140,170776
DA:141,170776
DA:142,170776
DA:143,170776
DA:145,1795232
DA:146,1795232
DA:147,1795232
DA:148,1795232
DA:149,1795232
DA:150,1795232
DA:151,1795232
DA:152,1795232
DA:154,1
DA:155,1
DA:156,1
DA:157,1
DA:158,1
DA:159,1
DA:160,1
DA:161,1
DA:162,1
DA:163,1
DA:164,170776
DA:165,170776
DA:166,88143
DA:168,82633
DA:170,170776
DA:171,1
DA:172,1
DA:173,1
DA:174,1
DA:175,170776
DA:176,170776
DA:177,88143
DA:179,82633
DA:181,170776
DA:182,1
DA:183,130
DA:184,130
DA:185,130
DA:186,22200880
DA:187,22200880
DA:188,130
DA:189,130
DA:190,130
DA:191,130
DA:192,130
DA:193,130
DA:194,130
DA:195,130
DA:196,130
DA:197,130
DA:198,130
DA:199,477120
DA:200,0
DA:201,477120
DA:202,477120
DA:203,130
DA:204,130
DA:205,130
DA:206,130
DA:207,477120
DA:208,477120
DA:209,996362
DA:210,996362
DA:211,996362
DA:212,996362
DA:213,996362
DA:214,996362
DA:215,996362
DA:216,996362
DA:217,477120
DA:218,477120
DA:219,130
DA:220,130
DA:221,130
DA:222,130
DA:223,130
DA:224,22200880
DA:225,130
DA:226,130
DA:227,1
DA:228,1
DA:229,1
DA:230,170776
DA:231,1
DA:232,1
DA:233,1
DA:234,2
DA:235,2
DA:236,2
DA:237,341552
DA:238,341550
DA:239,2
DA:240,341552
DA:241,2
DA:242,2
DA:243,2
DA:244,2
DA:245,1
DA:246,1
DA:247,1
DA:248,170776
DA:249,170776
DA:250,170776
DA:251,170776
DA:252,170776
DA:253,170776
DA:254,1
DA:255,3
DA:256,3
DA:257,3
DA:258,512328
DA:260,512328
DA:261,512328
DA:262,512328
DA:263,512328
DA:264,31487
DA:265,31487
DA:266,31487
DA:267,3
DA:268,2
DA:269,2
DA:270,2
DA:271,2
DA:272,2
DA:273,2
DA:274,2
DA:275,2
DA:276,260
DA:277,31922020
DA:278,31922020
DA:279,31922020
DA:280,31922020
DA:281,31922020
DA:282,260
DA:283,130
DA:284,130
DA:285,130
DA:286,130
DA:287,15965192
DA:288,130
DA:289,130
DA:290,171157
DA:291,171157
DA:292,171157
DA:293,171157
DA:294,171157
DA:295,130
DA:296,130
DA:297,130
DA:298,171367
DA:299,171367
DA:300,478313
DA:301,478313
DA:302,478313
DA:303,478313
DA:304,478313
DA:305,478313
DA:306,478313
DA:307,478313
DA:308,171367
DA:309,171264
DA:310,171264
DA:311,130
DA:312,130
DA:313,130
DA:314,130
DA:315,130
DA:316,130
DA:317,171249
DA:318,171157
DA:319,171157
DA:320,38
DA:321,171119
DA:322,171119
DA:323,171119
DA:324,426798
DA:325,426798
DA:326,426798
DA:327,426798
DA:328,207994
DA:329,207994
DA:330,207994
DA:332,92
DA:333,130
DA:334,0
DA:335,0
DA:336,0
DA:341,0
DA:348,0
DA:356,1171450
DA:357,1171450
DA:358,1171450
DA:362,170776
DA:363,170776
DA:364,170776
DA:365,170776
DA:366,170776
DA:367,170776
DA:368,341551
DA:369,170775
DA:370,170775
DA:371,170775
DA:372,170776
DA:373,170776
DA:377,0
DA:386,1
DA:387,170776
DA:388,170776
DA:389,170776
DA:390,170776
DA:391,170776
DA:392,170776
DA:393,170776
DA:394,170776
DA:395,170776
DA:397,1795232
DA:398,1795232
DA:399,1795232
DA:400,1795232
DA:401,1795232
DA:402,1795232
DA:403,1795232
DA:404,1795232
DA:406,1
DA:407,1
DA:408,1
DA:409,1
DA:410,1
DA:411,1
DA:412,1
DA:413,1
DA:414,1
DA:415,1
DA:416,170776
DA:417,170776
DA:418,88143
DA:420,82633
DA:422,170776
DA:423,1
DA:424,1
DA:425,1
DA:426,1
DA:427,170776
DA:428,1
DA:429,0
DA:430,0
DA:431,0
DA:432,260
DA:433,31922020
DA:434,31922020
DA:435,31922020
DA:436,31922020
DA:437,31922020
DA:438,260
DA:439,130
DA:440,130
DA:441,130
DA:442,130
DA:443,130
DA:444,130
DA:445,15962817
DA:446,130
DA:447,130
DA:448,171157
DA:449,171157
DA:450,171157
DA:451,171157
DA:452,171157
DA:453,130
DA:454,130
DA:455,130
DA:456,171340
DA:457,171340
DA:458,491181
DA:459,491181
DA:460,491181
DA:461,491181
DA:462,491181
DA:463,491181
DA:464,491181
DA:465,491181
DA:466,171340
DA:467,171223
DA:468,171223
DA:469,130
DA:470,130
DA:471,130
DA:472,130
DA:473,130
DA:474,130
DA:475,171249
DA:476,171157
DA:477,171157
DA:478,38
DA:479,171119
DA:480,171119
DA:481,171119
DA:482,426798
DA:483,426798
DA:484,426798
DA:485,426798
DA:486,207994
DA:487,207994
DA:488,207994
DA:490,92
DA:491,130
DA:492,130
DA:493,130
DA:494,130
DA:495,22200880
DA:496,22200880
DA:497,130
DA:498,130
DA:499,130
DA:500,130
DA:501,130
DA:502,22200880
DA:503,130
DA:504,130
DA:505,2
DA:506,2
DA:507,2
DA:508,341552
DA:509,2
DA:510,2
DA:511,2
DA:512,1
DA:513,1
DA:514,1
DA:515,170776
DA:516,170775
DA:517,1
DA:518,170776
DA:519,1
DA:520,1
DA:521,1
DA:522,1
DA:523,2
DA:524,2
DA:525,2
DA:526,341552
DA:527,341552
DA:528,341552
DA:529,341552
DA:530,341552
DA:531,341552
DA:532,2
DA:533,3
DA:534,3
DA:535,3
DA:536,512328
DA:538,512328
DA:539,512328
DA:540,512328
DA:541,512328
DA:542,23923
DA:543,23923
DA:544,23923
DA:545,3
DA:546,1
DA:547,1
DA:548,1
DA:549,1
DA:550,1
DA:551,1
DA:552,1
DA:553,130
DA:554,130
DA:555,130
DA:556,477120
DA:557,477120
DA:558,477120
DA:559,477120
DA:560,477120
DA:562,130
DA:563,130
DA:564,130
DA:565,130
DA:566,477120
DA:567,477120
DA:568,996362
DA:569,996362
DA:570,996362
DA:571,996362
DA:572,996362
DA:573,996362
DA:574,996362
DA:575,996362
DA:576,477120
DA:577,477120
DA:578,130
DA:579,130
DA:586,341552
BRF:0
BRH:0
LF:481
LH:465
end_of_record
SF:/home/tait/Documents/a11y-tree-data/code/indextree-method-structural-nav/src/role_set.rs
FN:63,_RNCNvMNtCsfw8KLZzEbVr_31indextree_method_structural_nav8role_setNtB4_7RoleSet9role_iter0CsfXjBHGNHweS_8rust_out
FN:67,_RNCNvMNtCsfw8KLZzEbVr_31indextree_method_structural_nav8role_setNtB4_7RoleSet9role_iters0_0CsfXjBHGNHweS_8rust_out
FN:68,_RNCNvMNtCsfw8KLZzEbVr_31indextree_method_structural_nav8role_setNtB4_7RoleSet9role_iters1_0CsfXjBHGNHweS_8rust_out
FN:64,_RNCNvMNtCsfw8KLZzEbVr_31indextree_method_structural_nav8role_setNtB4_7RoleSet9role_iters_0CsfXjBHGNHweS_8rust_out
FN:20,_RNvCsfXjBHGNHweS_8rust_out4main
FN:20,_RNvNvCsfXjBHGNHweS_8rust_out4main34__doctest_main_src_role_set_rs_19_0
FN:67,_RNCNvMNtCsfw8KLZzEbVr_31indextree_method_structural_nav8role_setNtB4_7RoleSet9role_iters0_0B6_
FN:64,_RNCNvMNtCsfw8KLZzEbVr_31indextree_method_structural_nav8role_setNtB4_7RoleSet9role_iters_0B6_
FN:387,_RNCNvMsa_NtCsfw8KLZzEbVr_31indextree_method_structural_nav8role_setNtB7_15RoleSetVecCount3add0B9_
FN:358,_RNCNvMsa_NtCsfw8KLZzEbVr_31indextree_method_structural_nav8role_setNtB7_15RoleSetVecCount5count0B9_
FN:27,_RNvMNtCsfw8KLZzEbVr_31indextree_method_structural_nav8role_setNtB2_7RoleSet9from_role
FN:61,_RNvMNtCsfw8KLZzEbVr_31indextree_method_structural_nav8role_setNtB2_7RoleSet9role_iter
FN:385,_RNvMsa_NtCsfw8KLZzEbVr_31indextree_method_structural_nav8role_setNtB5_15RoleSetVecCount3add
FN:356,_RNvMsa_NtCsfw8KLZzEbVr_31indextree_method_structural_nav8role_setNtB5_15RoleSetVecCount5count
FN:350,_RNvMsa_NtCsfw8KLZzEbVr_31indextree_method_structural_nav8role_setNtB5_15RoleSetVecCount9from_role
FN:151,_RNvNtCsfw8KLZzEbVr_31indextree_method_structural_nav8role_set9role_bits
FN:338,_RNvXNvXNvNtCsfw8KLZzEbVr_31indextree_method_structural_nav8role_sets1_1__NtB7_15RoleSetVecCountNtNtCsgwkn3kcQmDy_5serde2de11Deserialize11deserializeNtB2_9___VisitorNtB1x_7Visitor9expecting
FN:8,_RNvXNvXNvNtCsfw8KLZzEbVr_31indextree_method_structural_nav8role_sets_1__NtB7_7RoleSetNtNtCsgwkn3kcQmDy_5serde2de11Deserialize11deserializeNtB2_9___VisitorNtB1n_7Visitor9expecting
FN:80,_RNvXs0_NtCsfw8KLZzEbVr_31indextree_method_structural_nav8role_setNtB5_7RoleSetINtNtCs8eeqTsWlyPc_4core7convert4FromNtNtCscR1Kq9l731G_12atspi_common4role4RoleE4from
FN:88,_RNvXs1_NtCsfw8KLZzEbVr_31indextree_method_structural_nav8role_setNtB5_7RoleSetNtNtNtCs8eeqTsWlyPc_4core3ops3bit12BitAndAssign13bitand_assign
FN:95,_RNvXs2_NtCsfw8KLZzEbVr_31indextree_method_structural_nav8role_setNtB5_7RoleSetINtNtNtCs8eeqTsWlyPc_4core3ops3bit12BitAndAssignNtNtCscR1Kq9l731G_12atspi_common4role4RoleE13bitand_assign
FN:101,_RNvXs3_NtCsfw8KLZzEbVr_31indextree_method_structural_nav8role_setNtB5_7RoleSetNtNtNtCs8eeqTsWlyPc_4core3ops3bit11BitOrAssign12bitor_assign
FN:108,_RNvXs4_NtCsfw8KLZzEbVr_31indextree_method_structural_nav8role_setNtB5_7RoleSetINtNtNtCs8eeqTsWlyPc_4core3ops3bit11BitOrAssignNtNtCscR1Kq9l731G_12atspi_common4role4RoleE12bitor_assign
FN:124,_RNvXs6_NtCsfw8KLZzEbVr_31indextree_method_structural_nav8role_setNtB5_7RoleSetINtNtNtCs8eeqTsWlyPc_4core3ops3bit6BitAndNtNtCscR1Kq9l731G_12atspi_common4role4RoleE6bitand
FN:131,_RNvXs7_NtCsfw8KLZzEbVr_31indextree_method_structural_nav8role_setNtB5_7RoleSetNtNtNtCs8eeqTsWlyPc_4core3ops3bit5BitOr5bitor
FN:138,_RNvXs8_NtCsfw8KLZzEbVr_31indextree_method_structural_nav8role_setNtB5_7RoleSetINtNtNtCs8eeqTsWlyPc_4core3ops3bit5BitOrNtNtCscR1Kq9l731G_12atspi_common4role4RoleE5bitor
FN:74,_RNvXs_NtCsfw8KLZzEbVr_31indextree_method_structural_nav8role_setNtB4_7RoleSetNtNtCs8eeqTsWlyPc_4core3fmt5Debug3fmt
FN:396,_RNvXsb_NtCsfw8KLZzEbVr_31indextree_method_structural_nav8role_setNtB5_15RoleSetVecCountINtNtCs8eeqTsWlyPc_4core7convert4FromNtNtCscR1Kq9l731G_12atspi_common4role4RoleE4from
FN:63,_RNCNvMNtCsfw8KLZzEbVr_31indextree_method_structural_nav8role_setNtB4_7RoleSet9role_iter0B6_
FN:68,_RNCNvMNtCsfw8KLZzEbVr_31indextree_method_structural_nav8role_setNtB4_7RoleSet9role_iters1_0B6_
FN:44,_RNvMNtCsfw8KLZzEbVr_31indextree_method_structural_nav8role_setNtB2_7RoleSet8contains
FN:116,_RNvXs5_NtCsfw8KLZzEbVr_31indextree_method_structural_nav8role_setNtB5_7RoleSetNtNtNtCs8eeqTsWlyPc_4core3ops3bit6BitAnd6bitand
FN:371,_RNvMsa_NtCsfw8KLZzEbVr_31indextree_method_structural_nav8role_setNtB5_15RoleSetVecCount8contains
FN:338,_RINvXNvXNvNtCsfw8KLZzEbVr_31indextree_method_structural_nav8role_sets1_1__NtB8_15RoleSetVecCountNtNtCsgwkn3kcQmDy_5serde2de11Deserialize11deserializeNtB3_9___VisitorNtB1y_7Visitor9visit_seqpEBa_
FN:8,_RINvXNvXNvNtCsfw8KLZzEbVr_31indextree_method_structural_nav8role_sets_1__NtB8_7RoleSetNtNtCsgwkn3kcQmDy_5serde2de11Deserialize11deserializeNtB3_9___VisitorNtB1o_7Visitor9visit_seqpEBa_
FN:145,_RNvXs9_NtCsfw8KLZzEbVr_31indextree_method_structural_nav8role_setNtB5_7RoleSetNtNtNtCs8eeqTsWlyPc_4core3ops3bit3Not3not
FN:44,_RNvMNtCsfw8KLZzEbVr_31indextree_method_structural_nav8role_setNtB2_7RoleSet8containsCsfXjBHGNHweS_8rust_out
FN:34,_RNvNvCsfXjBHGNHweS_8rust_out4main34__doctest_main_src_role_set_rs_33_0
FN:116,_RNvXs5_NtCsfw8KLZzEbVr_31indextree_method_structural_nav8role_setNtB5_7RoleSetNtNtNtCs8eeqTsWlyPc_4core3ops3bit6BitAnd6bitandCsfXjBHGNHweS_8rust_out
FN:345,_RNvNvCsfXjBHGNHweS_8rust_out4main35__doctest_main_src_role_set_rs_344_0
FN:371,_RNvMsa_NtCsfw8KLZzEbVr_31indextree_method_structural_nav8role_setNtB5_15RoleSetVecCount8containsCsfXjBHGNHweS_8rust_out
FN:364,_RNvNvCsfXjBHGNHweS_8rust_out4main35__doctest_main_src_role_set_rs_363_0
FN:377,_RNvNvCsfXjBHGNHweS_8rust_out4main35__doctest_main_src_role_set_rs_376_0
FN:50,_RNvNvCsfXjBHGNHweS_8rust_out4main34__doctest_main_src_role_set_rs_49_0
FN:371,_RNvMsa_NtCs22gWgzn6ZqV_31indextree_method_structural_nav8role_setNtB5_15RoleSetVecCount8contains
FN:402,_RNvNtCs22gWgzn6ZqV_31indextree_method_structural_nav8role_sets_14internal_frame
FN:307,_RNvNtNtCs22gWgzn6ZqV_31indextree_method_structural_nav8role_set5testss_14check_bits_and
FN:314,_RNvNtNtCs22gWgzn6ZqV_31indextree_method_structural_nav8role_set5testss_14check_bits_not
FN:145,_RNvXs9_NtCs22gWgzn6ZqV_31indextree_method_structural_nav8role_setNtB5_7RoleSetNtNtNtCs8eeqTsWlyPc_4core3ops3bit3Not3not
FN:44,_RNvMNtCs22gWgzn6ZqV_31indextree_method_structural_nav8role_setNtB2_7RoleSet8contains
FN:101,_RNvXs3_NtCs22gWgzn6ZqV_31indextree_method_structural_nav8role_setNtB5_7RoleSetNtNtNtCs8eeqTsWlyPc_4core3ops3bit11BitOrAssign12bitor_assign
FN:116,_RNvXs5_NtCs22gWgzn6ZqV_31indextree_method_structural_nav8role_setNtB5_7RoleSetNtNtNtCs8eeqTsWlyPc_4core3ops3bit6BitAnd6bitand
FN:63,_RNCNvMNtCs22gWgzn6ZqV_31indextree_method_structural_nav8role_setNtB4_7RoleSet9role_iter0B6_
FN:68,_RNCNvMNtCs22gWgzn6ZqV_31indextree_method_structural_nav8role_setNtB4_7RoleSet9role_iters1_0B6_
FN:67,_RNCNvMNtCs22gWgzn6ZqV_31indextree_method_structural_nav8role_setNtB4_7RoleSet9role_iters0_0B6_
FN:64,_RNCNvMNtCs22gWgzn6ZqV_31indextree_method_structural_nav8role_setNtB4_7RoleSet9role_iters_0B6_
FN:387,_RNCNvMsa_NtCs22gWgzn6ZqV_31indextree_method_structural_nav8role_setNtB7_15RoleSetVecCount3add0B9_
FN:27,_RNvMNtCs22gWgzn6ZqV_31indextree_method_structural_nav8role_setNtB2_7RoleSet9from_role
FN:61,_RNvMNtCs22gWgzn6ZqV_31indextree_method_structural_nav8role_setNtB2_7RoleSet9role_iter
FN:385,_RNvMsa_NtCs22gWgzn6ZqV_31indextree_method_structural_nav8role_setNtB5_15RoleSetVecCount3add
FN:151,_RNvNtCs22gWgzn6ZqV_31indextree_method_structural_nav8role_set9role_bits
FN:322,_RNvNtNtCs22gWgzn6ZqV_31indextree_method_structural_nav8role_set5testss_21check_bits_and_assign
FN:301,_RNvNtNtCs22gWgzn6ZqV_31indextree_method_structural_nav8role_set5testss_24check_all_roles_no_error
FN:290,_RNvNtNtCs22gWgzn6ZqV_31indextree_method_structural_nav8role_set5testss_28check_bit_or_assign_max_role
FN:80,_RNvXs0_NtCs22gWgzn6ZqV_31indextree_method_structural_nav8role_setNtB5_7RoleSetINtNtCs8eeqTsWlyPc_4core7convert4FromNtNtCscR1Kq9l731G_12atspi_common4role4RoleE4from
FN:88,_RNvXs1_NtCs22gWgzn6ZqV_31indextree_method_structural_nav8role_setNtB5_7RoleSetNtNtNtCs8eeqTsWlyPc_4core3ops3bit12BitAndAssign13bitand_assign
FN:108,_RNvXs4_NtCs22gWgzn6ZqV_31indextree_method_structural_nav8role_setNtB5_7RoleSetINtNtNtCs8eeqTsWlyPc_4core3ops3bit11BitOrAssignNtNtCscR1Kq9l731G_12atspi_common4role4RoleE12bitor_assign
FN:138,_RNvXs8_NtCs22gWgzn6ZqV_31indextree_method_structural_nav8role_setNtB5_7RoleSetINtNtNtCs8eeqTsWlyPc_4core3ops3bit5BitOrNtNtCscR1Kq9l731G_12atspi_common4role4RoleE5bitor
FN:74,_RNvXs_NtCs22gWgzn6ZqV_31indextree_method_structural_nav8role_setNtB4_7RoleSetNtNtCs8eeqTsWlyPc_4core3fmt5Debug3fmt
FN:338,_RINvXNvXNvNtCs22gWgzn6ZqV_31indextree_method_structural_nav8role_sets1_1__NtB8_15RoleSetVecCountNtNtCsgwkn3kcQmDy_5serde2de11Deserialize11deserializeNtB3_9___VisitorNtB1y_7Visitor9visit_seqpEBa_
FN:8,_RINvXNvXNvNtCs22gWgzn6ZqV_31indextree_method_structural_nav8role_sets_1__NtB8_7RoleSetNtNtCsgwkn3kcQmDy_5serde2de11Deserialize11deserializeNtB3_9___VisitorNtB1o_7Visitor9visit_seqpEBa_
FN:358,_RNCNvMsa_NtCs22gWgzn6ZqV_31indextree_method_structural_nav8role_setNtB7_15RoleSetVecCount5count0B9_
FN:356,_RNvMsa_NtCs22gWgzn6ZqV_31indextree_method_structural_nav8role_setNtB5_15RoleSetVecCount5count
FN:350,_RNvMsa_NtCs22gWgzn6ZqV_31indextree_method_structural_nav8role_setNtB5_15RoleSetVecCount9from_role
FN:338,_RNvXNvXNvNtCs22gWgzn6ZqV_31indextree_method_structural_nav8role_sets1_1__NtB7_15RoleSetVecCountNtNtCsgwkn3kcQmDy_5serde2de11Deserialize11deserializeNtB2_9___VisitorNtB1x_7Visitor9expecting
FN:8,_RNvXNvXNvNtCs22gWgzn6ZqV_31indextree_method_structural_nav8role_sets_1__NtB7_7RoleSetNtNtCsgwkn3kcQmDy_5serde2de11Deserialize11deserializeNtB2_9___VisitorNtB1n_7Visitor9expecting
FN:95,_RNvXs2_NtCs22gWgzn6ZqV_31indextree_method_structural_nav8role_setNtB5_7RoleSetINtNtNtCs8eeqTsWlyPc_4core3ops3bit12BitAndAssignNtNtCscR1Kq9l731G_12atspi_common4role4RoleE13bitand_assign
FN:124,_RNvXs6_NtCs22gWgzn6ZqV_31indextree_method_structural_nav8role_setNtB5_7RoleSetINtNtNtCs8eeqTsWlyPc_4core3ops3bit6BitAndNtNtCscR1Kq9l731G_12atspi_common4role4RoleE6bitand
FN:396,_RNvXsb_NtCs22gWgzn6ZqV_31indextree_method_structural_nav8role_setNtB5_15RoleSetVecCountINtNtCs8eeqTsWlyPc_4core7convert4FromNtNtCscR1Kq9l731G_12atspi_common4role4RoleE4from
FN:131,_RNvXs7_NtCs22gWgzn6ZqV_31indextree_method_structural_nav8role_setNtB5_7RoleSetNtNtNtCs8eeqTsWlyPc_4core3ops3bit5BitOr5bitor
FNDA:147,_RNCNvMNtCsfw8KLZzEbVr_31indextree_method_structural_nav8role_setNtB4_7RoleSet9role_iter0CsfXjBHGNHweS_8rust_out
FNDA:8,_RNCNvMNtCsfw8KLZzEbVr_31indextree_method_structural_nav8role_setNtB4_7RoleSet9role_iters0_0CsfXjBHGNHweS_8rust_out
FNDA:0,_RNCNvMNtCsfw8KLZzEbVr_31indextree_method_structural_nav8role_setNtB4_7RoleSet9role_iters1_0CsfXjBHGNHweS_8rust_out
FNDA:5,_RNCNvMNtCsfw8KLZzEbVr_31indextree_method_structural_nav8role_setNtB4_7RoleSet9role_iters_0CsfXjBHGNHweS_8rust_out
FNDA:1,_RNvCsfXjBHGNHweS_8rust_out4main
FNDA:1,_RNvNvCsfXjBHGNHweS_8rust_out4main34__doctest_main_src_role_set_rs_19_0
FNDA:0,_RNCNvMNtCsfw8KLZzEbVr_31indextree_method_structural_nav8role_setNtB4_7RoleSet9role_iters0_0B6_
FNDA:0,_RNCNvMNtCsfw8KLZzEbVr_31indextree_method_structural_nav8role_setNtB4_7RoleSet9role_iters_0B6_
FNDA:1,_RNCNvMsa_NtCsfw8KLZzEbVr_31indextree_method_structural_nav8role_setNtB7_15RoleSetVecCount3add0B9_
FNDA:0,_RNCNvMsa_NtCsfw8KLZzEbVr_31indextree_method_structural_nav8role_setNtB7_15RoleSetVecCount5count0B9_
FNDA:2,_RNvMNtCsfw8KLZzEbVr_31indextree_method_structural_nav8role_setNtB2_7RoleSet9from_role
FNDA:3,_RNvMNtCsfw8KLZzEbVr_31indextree_method_structural_nav8role_setNtB2_7RoleSet9role_iter
FNDA:1,_RNvMsa_NtCsfw8KLZzEbVr_31indextree_method_structural_nav8role_setNtB5_15RoleSetVecCount3add
FNDA:0,_RNvMsa_NtCsfw8KLZzEbVr_31indextree_method_structural_nav8role_setNtB5_15RoleSetVecCount5count
FNDA:3,_RNvMsa_NtCsfw8KLZzEbVr_31indextree_method_structural_nav8role_setNtB5_15RoleSetVecCount9from_role
FNDA:14,_RNvNtCsfw8KLZzEbVr_31indextree_method_structural_nav8role_set9role_bits
FNDA:0,_RNvXNvXNvNtCsfw8KLZzEbVr_31indextree_method_structural_nav8role_sets1_1__NtB7_15RoleSetVecCountNtNtCsgwkn3kcQmDy_5serde2de11Deserialize11deserializeNtB2_9___VisitorNtB1x_7Visitor9expecting
FNDA:0,_RNvXNvXNvNtCsfw8KLZzEbVr_31indextree_method_structural_nav8role_sets_1__NtB7_7RoleSetNtNtCsgwkn3kcQmDy_5serde2de11Deserialize11deserializeNtB2_9___VisitorNtB1n_7Visitor9expecting
FNDA:12,_RNvXs0_NtCsfw8KLZzEbVr_31indextree_method_structural_nav8role_setNtB5_7RoleSetINtNtCs8eeqTsWlyPc_4core7convert4FromNtNtCscR1Kq9l731G_12atspi_common4role4RoleE4from
FNDA:0,_RNvXs1_NtCsfw8KLZzEbVr_31indextree_method_structural_nav8role_setNtB5_7RoleSetNtNtNtCs8eeqTsWlyPc_4core3ops3bit12BitAndAssign13bitand_assign
FNDA:0,_RNvXs2_NtCsfw8KLZzEbVr_31indextree_method_structural_nav8role_setNtB5_7RoleSetINtNtNtCs8eeqTsWlyPc_4core3ops3bit12BitAndAssignNtNtCscR1Kq9l731G_12atspi_common4role4RoleE13bitand_assign
FNDA:1,_RNvXs3_NtCsfw8KLZzEbVr_31indextree_method_structural_nav8role_setNtB5_7RoleSetNtNtNtCs8eeqTsWlyPc_4core3ops3bit11BitOrAssign12bitor_assign
FNDA:1,_RNvXs4_NtCsfw8KLZzEbVr_31indextree_method_structural_nav8role_setNtB5_7RoleSetINtNtNtCs8eeqTsWlyPc_4core3ops3bit11BitOrAssignNtNtCscR1Kq9l731G_12atspi_common4role4RoleE12bitor_assign
FNDA:0,_RNvXs6_NtCsfw8KLZzEbVr_31indextree_method_structural_nav8role_setNtB5_7RoleSetINtNtNtCs8eeqTsWlyPc_4core3ops3bit6BitAndNtNtCscR1Kq9l731G_12atspi_common4role4RoleE6bitand
FNDA:0,_RNvXs7_NtCsfw8KLZzEbVr_31indextree_method_structural_nav8role_setNtB5_7RoleSetNtNtNtCs8eeqTsWlyPc_4core3ops3bit5BitOr5bitor
FNDA:0,_RNvXs8_NtCsfw8KLZzEbVr_31indextree_method_structural_nav8role_setNtB5_7RoleSetINtNtNtCs8eeqTsWlyPc_4core3ops3bit5BitOrNtNtCscR1Kq9l731G_12atspi_common4role4RoleE5bitor
FNDA:0,_RNvXs_NtCsfw8KLZzEbVr_31indextree_method_structural_nav8role_setNtB4_7RoleSetNtNtCs8eeqTsWlyPc_4core3fmt5Debug3fmt
FNDA:0,_RNvXsb_NtCsfw8KLZzEbVr_31indextree_method_structural_nav8role_setNtB5_15RoleSetVecCountINtNtCs8eeqTsWlyPc_4core7convert4FromNtNtCscR1Kq9l731G_12atspi_common4role4RoleE4from
FNDA:0,_RNCNvMNtCsfw8KLZzEbVr_31indextree_method_structural_nav8role_setNtB4_7RoleSet9role_iter0B6_
FNDA:0,_RNCNvMNtCsfw8KLZzEbVr_31indextree_method_structural_nav8role_setNtB4_7RoleSet9role_iters1_0B6_
FNDA:0,_RNvMNtCsfw8KLZzEbVr_31indextree_method_structural_nav8role_setNtB2_7RoleSet8contains
FNDA:0,_RNvXs5_NtCsfw8KLZzEbVr_31indextree_method_structural_nav8role_setNtB5_7RoleSetNtNtNtCs8eeqTsWlyPc_4core3ops3bit6BitAnd6bitand
FNDA:0,_RNvMsa_NtCsfw8KLZzEbVr_31indextree_method_structural_nav8role_setNtB5_15RoleSetVecCount8contains
FNDA:0,_RINvXNvXNvNtCsfw8KLZzEbVr_31indextree_method_structural_nav8role_sets1_1__NtB8_15RoleSetVecCountNtNtCsgwkn3kcQmDy_5serde2de11Deserialize11deserializeNtB3_9___VisitorNtB1y_7Visitor9visit_seqpEBa_
FNDA:0,_RINvXNvXNvNtCsfw8KLZzEbVr_31indextree_method_structural_nav8role_sets_1__NtB8_7RoleSetNtNtCsgwkn3kcQmDy_5serde2de11Deserialize11deserializeNtB3_9___VisitorNtB1o_7Visitor9visit_seqpEBa_
FNDA:0,_RNvXs9_NtCsfw8KLZzEbVr_31indextree_method_structural_nav8role_setNtB5_7RoleSetNtNtNtCs8eeqTsWlyPc_4core3ops3bit3Not3not
FNDA:9,_RNvMNtCsfw8KLZzEbVr_31indextree_method_structural_nav8role_setNtB2_7RoleSet8containsCsfXjBHGNHweS_8rust_out
FNDA:1,_RNvNvCsfXjBHGNHweS_8rust_out4main34__doctest_main_src_role_set_rs_33_0
FNDA:9,_RNvXs5_NtCsfw8KLZzEbVr_31indextree_method_structural_nav8role_setNtB5_7RoleSetNtNtNtCs8eeqTsWlyPc_4core3ops3bit6BitAnd6bitandCsfXjBHGNHweS_8rust_out
FNDA:1,_RNvNvCsfXjBHGNHweS_8rust_out4main35__doctest_main_src_role_set_rs_344_0
FNDA:5,_RNvMsa_NtCsfw8KLZzEbVr_31indextree_method_structural_nav8role_setNtB5_15RoleSetVecCount8containsCsfXjBHGNHweS_8rust_out
FNDA:1,_RNvNvCsfXjBHGNHweS_8rust_out4main35__doctest_main_src_role_set_rs_363_0
FNDA:1,_RNvNvCsfXjBHGNHweS_8rust_out4main35__doctest_main_src_role_set_rs_376_0
FNDA:1,_RNvNvCsfXjBHGNHweS_8rust_out4main34__doctest_main_src_role_set_rs_49_0
FNDA:1901473,_RNvMsa_NtCs22gWgzn6ZqV_31indextree_method_structural_nav8role_setNtB5_15RoleSetVecCount8contains
FNDA:1,_RNvNtCs22gWgzn6ZqV_31indextree_method_structural_nav8role_sets_14internal_frame
FNDA:1,_RNvNtNtCs22gWgzn6ZqV_31indextree_method_structural_nav8role_set5testss_14check_bits_and
FNDA:1,_RNvNtNtCs22gWgzn6ZqV_31indextree_method_structural_nav8role_set5testss_14check_bits_not
FNDA:2,_RNvXs9_NtCs22gWgzn6ZqV_31indextree_method_structural_nav8role_setNtB5_7RoleSetNtNtNtCs8eeqTsWlyPc_4core3ops3bit3Not3not
FNDA:6158719,_RNvMNtCs22gWgzn6ZqV_31indextree_method_structural_nav8role_setNtB2_7RoleSet8contains
FNDA:5469001,_RNvXs3_NtCs22gWgzn6ZqV_31indextree_method_structural_nav8role_setNtB5_7RoleSetNtNtNtCs8eeqTsWlyPc_4core3ops3bit11BitOrAssign12bitor_assign
FNDA:6158720,_RNvXs5_NtCs22gWgzn6ZqV_31indextree_method_structural_nav8role_setNtB5_7RoleSetNtNtNtCs8eeqTsWlyPc_4core3ops3bit6BitAnd6bitand
FNDA:512,_RNCNvMNtCs22gWgzn6ZqV_31indextree_method_structural_nav8role_setNtB4_7RoleSet9role_iter0B6_
FNDA:12,_RNCNvMNtCs22gWgzn6ZqV_31indextree_method_structural_nav8role_setNtB4_7RoleSet9role_iters1_0B6_
FNDA:12,_RNCNvMNtCs22gWgzn6ZqV_31indextree_method_structural_nav8role_setNtB4_7RoleSet9role_iters0_0B6_
FNDA:512,_RNCNvMNtCs22gWgzn6ZqV_31indextree_method_structural_nav8role_setNtB4_7RoleSet9role_iters_0B6_
FNDA:19185732,_RNCNvMsa_NtCs22gWgzn6ZqV_31indextree_method_structural_nav8role_setNtB7_15RoleSetVecCount3add0B9_
FNDA:3673774,_RNvMNtCs22gWgzn6ZqV_31indextree_method_structural_nav8role_setNtB2_7RoleSet9from_role
FNDA:4,_RNvMNtCs22gWgzn6ZqV_31indextree_method_structural_nav8role_setNtB2_7RoleSet9role_iter
FNDA:1966008,_RNvMsa_NtCs22gWgzn6ZqV_31indextree_method_structural_nav8role_setNtB5_15RoleSetVecCount3add
FNDA:3675075,_RNvNtCs22gWgzn6ZqV_31indextree_method_structural_nav8role_set9role_bits
FNDA:1,_RNvNtNtCs22gWgzn6ZqV_31indextree_method_structural_nav8role_set5testss_21check_bits_and_assign
FNDA:1,_RNvNtNtCs22gWgzn6ZqV_31indextree_method_structural_nav8role_set5testss_24check_all_roles_no_error
FNDA:1,_RNvNtNtCs22gWgzn6ZqV_31indextree_method_structural_nav8role_set5testss_28check_bit_or_assign_max_role
FNDA:1301,_RNvXs0_NtCs22gWgzn6ZqV_31indextree_method_structural_nav8role_setNtB5_7RoleSetINtNtCs8eeqTsWlyPc_4core7convert4FromNtNtCscR1Kq9l731G_12atspi_common4role4RoleE4from
FNDA:1,_RNvXs1_NtCs22gWgzn6ZqV_31indextree_method_structural_nav8role_setNtB5_7RoleSetNtNtNtCs8eeqTsWlyPc_4core3ops3bit12BitAndAssign13bitand_assign
FNDA:3673768,_RNvXs4_NtCs22gWgzn6ZqV_31indextree_method_structural_nav8role_setNtB5_7RoleSetINtNtNtCs8eeqTsWlyPc_4core3ops3bit11BitOrAssignNtNtCscR1Kq9l731G_12atspi_common4role4RoleE12bitor_assign
FNDA:6,_RNvXs8_NtCs22gWgzn6ZqV_31indextree_method_structural_nav8role_setNtB5_7RoleSetINtNtNtCs8eeqTsWlyPc_4core3ops3bit5BitOrNtNtCscR1Kq9l731G_12atspi_common4role4RoleE5bitor
FNDA:0,_RNvXs_NtCs22gWgzn6ZqV_31indextree_method_structural_nav8role_setNtB4_7RoleSetNtNtCs8eeqTsWlyPc_4core3fmt5Debug3fmt
FNDA:0,_RINvXNvXNvNtCs22gWgzn6ZqV_31indextree_method_structural_nav8role_sets1_1__NtB8_15RoleSetVecCountNtNtCsgwkn3kcQmDy_5serde2de11Deserialize11deserializeNtB3_9___VisitorNtB1y_7Visitor9visit_seqpEBa_
FNDA:0,_RINvXNvXNvNtCs22gWgzn6ZqV_31indextree_method_structural_nav8role_sets_1__NtB8_7RoleSetNtNtCsgwkn3kcQmDy_5serde2de11Deserialize11deserializeNtB3_9___VisitorNtB1o_7Visitor9visit_seqpEBa_
FNDA:0,_RNCNvMsa_NtCs22gWgzn6ZqV_31indextree_method_structural_nav8role_setNtB7_15RoleSetVecCount5count0B9_
FNDA:0,_RNvMsa_NtCs22gWgzn6ZqV_31indextree_method_structural_nav8role_setNtB5_15RoleSetVecCount5count
FNDA:0,_RNvMsa_NtCs22gWgzn6ZqV_31indextree_method_structural_nav8role_setNtB5_15RoleSetVecCount9from_role
FNDA:0,_RNvXNvXNvNtCs22gWgzn6ZqV_31indextree_method_structural_nav8role_sets1_1__NtB7_15RoleSetVecCountNtNtCsgwkn3kcQmDy_5serde2de11Deserialize11deserializeNtB2_9___VisitorNtB1x_7Visitor9expecting
FNDA:0,_RNvXNvXNvNtCs22gWgzn6ZqV_31indextree_method_structural_nav8role_sets_1__NtB7_7RoleSetNtNtCsgwkn3kcQmDy_5serde2de11Deserialize11deserializeNtB2_9___VisitorNtB1n_7Visitor9expecting
FNDA:0,_RNvXs2_NtCs22gWgzn6ZqV_31indextree_method_structural_nav8role_setNtB5_7RoleSetINtNtNtCs8eeqTsWlyPc_4core3ops3bit12BitAndAssignNtNtCscR1Kq9l731G_12atspi_common4role4RoleE13bitand_assign
FNDA:0,_RNvXs6_NtCs22gWgzn6ZqV_31indextree_method_structural_nav8role_setNtB5_7RoleSetINtNtNtCs8eeqTsWlyPc_4core3ops3bit6BitAndNtNtCscR1Kq9l731G_12atspi_common4role4RoleE6bitand
FNDA:0,_RNvXsb_NtCs22gWgzn6ZqV_31indextree_method_structural_nav8role_setNtB5_15RoleSetVecCountINtNtCs8eeqTsWlyPc_4core7convert4FromNtNtCscR1Kq9l731G_12atspi_common4role4RoleE4from
FNDA:55416,_RNvXs7_NtCs22gWgzn6ZqV_31indextree_method_structural_nav8role_setNtB5_7RoleSetNtNtNtCs8eeqTsWlyPc_4core3ops3bit5BitOr5bitor
FNF:43
FNH:33
DA:8,0
DA:20,1
DA:23,1
DA:24,1
DA:25,1
DA:26,1
DA:27,3673776
DA:28,3673776
DA:29,3673776
DA:30,3673776
DA:34,1
DA:37,1
DA:38,1
DA:39,1
DA:40,1
DA:41,1
DA:42,1
DA:44,6158728
DA:45,6158728
DA:46,6158728
DA:50,1
DA:53,1
DA:54,1
DA:55,1
DA:56,1
DA:57,1
DA:59,1
DA:60,1
DA:61,7
DA:62,7
DA:63,659
DA:64,517
DA:65,7
DA:66,7
DA:67,20
DA:68,12
DA:70,7
DA:74,0
DA:75,0
DA:76,0
DA:80,1313
DA:81,1313
DA:82,1313
DA:83,1313
DA:88,1
DA:89,1
DA:90,1
DA:91,1
DA:95,0
DA:96,0
DA:97,0
DA:101,5469002
DA:102,5469002
DA:103,5469002
DA:104,5469002
DA:108,3673769
DA:109,3673769
DA:110,3673769
DA:116,6158729
DA:117,6158729
DA:118,6158729
DA:124,0
DA:125,0
DA:126,0
DA:131,55416
DA:132,55416
DA:133,55416
DA:138,6
DA:139,6
DA:140,6
DA:145,2
DA:146,2
DA:147,2
DA:151,3675089
DA:152,3675089
DA:153,11
DA:154,10
DA:155,25
DA:156,10
DA:157,10
DA:158,10
DA:159,10
DA:160,10
DA:161,10
DA:162,10
DA:163,9688
DA:164,26
DA:165,10
DA:166,10
DA:167,28
DA:168,10
DA:169,10
DA:170,10
DA:171,10
DA:172,10
DA:173,10
DA:174,10
DA:175,10
DA:176,27
DA:177,10
DA:178,10
DA:179,10
DA:180,594
DA:181,103
DA:182,10
DA:183,10
DA:184,74773
DA:185,293180
DA:186,450
DA:187,26
DA:188,10
DA:189,10
DA:190,44
DA:191,26
DA:192,145
DA:193,10
DA:194,10
DA:195,10
DA:196,23408
DA:197,10
DA:198,10
DA:199,10
DA:200,10673
DA:201,10
DA:202,42
DA:203,8100
DA:204,10
DA:205,10
DA:206,10
DA:207,10
DA:208,2944
DA:209,269635
DA:210,10
DA:211,10
DA:212,10
DA:213,10
DA:214,10
DA:215,26
DA:216,55
DA:217,10
DA:218,10
DA:219,10
DA:220,10
DA:221,10
DA:222,10
DA:223,10
DA:224,10
DA:225,10
DA:226,539465
DA:227,10
DA:228,36
DA:229,10
DA:230,10
DA:231,10
DA:232,27
DA:233,10
DA:234,353
DA:235,10
DA:236,22630
DA:237,10
DA:238,48218
DA:239,10
DA:240,10
DA:241,1335231
DA:242,10
DA:243,84287
DA:244,10
DA:245,10
DA:246,10
DA:247,10
DA:248,108
DA:249,10
DA:250,10
DA:251,10
DA:252,10
DA:253,10
DA:254,10
DA:255,10
DA:256,10
DA:257,10
DA:258,153
DA:259,10
DA:260,10
DA:261,10
DA:262,10
DA:263,49
DA:264,10
DA:265,10
DA:266,10
DA:267,10
DA:268,10
DA:269,714543
DA:270,10
DA:271,10
DA:272,4318
DA:273,302
DA:274,10
DA:275,230207
DA:276,10
DA:277,10
DA:278,10
DA:279,10
DA:280,221
DA:281,11
DA:282,11
DA:284,3675089
DA:290,1
DA:291,1
DA:292,1
DA:293,1
DA:294,1
DA:295,1
DA:296,0
DA:298,1
DA:301,1
DA:302,1
DA:303,1
DA:304,1
DA:307,1
DA:308,1
DA:309,1
DA:310,1
DA:311,1
DA:314,1
DA:315,1
DA:316,1
DA:317,1
DA:318,1
DA:319,1
DA:322,1
DA:323,1
DA:324,1
DA:325,1
DA:326,1
DA:327,1
DA:328,1
DA:329,1
DA:330,1
DA:331,1
DA:332,1
DA:333,1
DA:338,0
DA:345,1
DA:348,1
DA:349,1
DA:350,3
DA:351,3
DA:352,3
DA:356,0
DA:357,0
DA:358,0
DA:359,0
DA:360,0
DA:364,1
DA:367,1
DA:368,1
DA:369,1
DA:370,1
DA:371,1901478
DA:372,1901478
DA:373,1901478
DA:377,1
DA:380,1
DA:381,1
DA:382,1
DA:383,1
DA:384,1
DA:385,1966009
DA:386,1966009
DA:387,19185733
DA:388,306254
DA:389,306254
DA:391,1659755
DA:392,1966009
DA:396,0
DA:397,0
DA:398,0
DA:402,1
DA:403,1
DA:404,1
BRF:0
BRH:0
LF:292
LH:269
end_of_record
SF:/home/tait/Documents/a11y-tree-data/code/indextree-method-structural-nav/src/validity.rs
FN:37,_RNCNvNtCsfw8KLZzEbVr_31indextree_method_structural_nav8validity15real_tree_count0B5_
FN:23,_RNCNvNtCsfw8KLZzEbVr_31indextree_method_structural_nav8validity15real_tree_nodes0B5_
FN:15,_RNCNvNtCsfw8KLZzEbVr_31indextree_method_structural_nav8validity9real_data0B5_
FN:29,_RNCNvNtCsfw8KLZzEbVr_31indextree_method_structural_nav8validity9real_tree0B5_
FN:35,_RNvNtCsfw8KLZzEbVr_31indextree_method_structural_nav8validity15real_tree_count
FN:20,_RNvNtCsfw8KLZzEbVr_31indextree_method_structural_nav8validity15real_tree_nodes
FN:14,_RNvNtCsfw8KLZzEbVr_31indextree_method_structural_nav8validity9real_data
FN:27,_RNvNtCsfw8KLZzEbVr_31indextree_method_structural_nav8validity9real_tree
FN:35,_RNvNtCs22gWgzn6ZqV_31indextree_method_structural_nav8validity15real_tree_count
FN:20,_RNvNtCs22gWgzn6ZqV_31indextree_method_structural_nav8validity15real_tree_nodes
FN:14,_RNvNtCs22gWgzn6ZqV_31indextree_method_structural_nav8validity9real_data
FN:27,_RNvNtCs22gWgzn6ZqV_31indextree_method_structural_nav8validity9real_tree
FN:85,_RNvNtCs22gWgzn6ZqV_31indextree_method_structural_nav8validitys_14validate_leafs
FN:191,_RNvNtCs22gWgzn6ZqV_31indextree_method_structural_nav8validitys_16find_first_stack
FN:221,_RNvNtCs22gWgzn6ZqV_31indextree_method_structural_nav8validitys_17validate_how_many
FN:47,_RNvNtCs22gWgzn6ZqV_31indextree_method_structural_nav8validitys_18validate_max_depth
FN:121,_RNvNtCs22gWgzn6ZqV_31indextree_method_structural_nav8validitys_19validate_find_first
FN:47,_RNvNtCs22gWgzn6ZqV_31indextree_method_structural_nav8validitys_21validate_unique_roles
FN:47,_RNvNtCs22gWgzn6ZqV_31indextree_method_structural_nav8validitys_29validate_unique_roles_precalc
FN:37,_RNCNvNtCs22gWgzn6ZqV_31indextree_method_structural_nav8validity15real_tree_count0B5_
FN:23,_RNCNvNtCs22gWgzn6ZqV_31indextree_method_structural_nav8validity15real_tree_nodes0B5_
FN:15,_RNCNvNtCs22gWgzn6ZqV_31indextree_method_structural_nav8validity9real_data0B5_
FN:29,_RNCNvNtCs22gWgzn6ZqV_31indextree_method_structural_nav8validity9real_tree0B5_
FNDA:0,_RNCNvNtCsfw8KLZzEbVr_31indextree_method_structural_nav8validity15real_tree_count0B5_
FNDA:0,_RNCNvNtCsfw8KLZzEbVr_31indextree_method_structural_nav8validity15real_tree_nodes0B5_
FNDA:0,_RNCNvNtCsfw8KLZzEbVr_31indextree_method_structural_nav8validity9real_data0B5_
FNDA:0,_RNCNvNtCsfw8KLZzEbVr_31indextree_method_structural_nav8validity9real_tree0B5_
FNDA:0,_RNvNtCsfw8KLZzEbVr_31indextree_method_structural_nav8validity15real_tree_count
FNDA:0,_RNvNtCsfw8KLZzEbVr_31indextree_method_structural_nav8validity15real_tree_nodes
FNDA:0,_RNvNtCsfw8KLZzEbVr_31indextree_method_structural_nav8validity9real_data
FNDA:0,_RNvNtCsfw8KLZzEbVr_31indextree_method_structural_nav8validity9real_tree
FNDA:7,_RNvNtCs22gWgzn6ZqV_31indextree_method_structural_nav8validity15real_tree_count
FNDA:14,_RNvNtCs22gWgzn6ZqV_31indextree_method_structural_nav8validity15real_tree_nodes
FNDA:14,_RNvNtCs22gWgzn6ZqV_31indextree_method_structural_nav8validity9real_data
FNDA:7,_RNvNtCs22gWgzn6ZqV_31indextree_method_structural_nav8validity9real_tree
FNDA:1,_RNvNtCs22gWgzn6ZqV_31indextree_method_structural_nav8validitys_14validate_leafs
FNDA:1,_RNvNtCs22gWgzn6ZqV_31indextree_method_structural_nav8validitys_16find_first_stack
FNDA:1,_RNvNtCs22gWgzn6ZqV_31indextree_method_structural_nav8validitys_17validate_how_many
FNDA:1,_RNvNtCs22gWgzn6ZqV_31indextree_method_structural_nav8validitys_18validate_max_depth
FNDA:1,_RNvNtCs22gWgzn6ZqV_31indextree_method_structural_nav8validitys_19validate_find_first
FNDA:1,_RNvNtCs22gWgzn6ZqV_31indextree_method_structural_nav8validitys_21validate_unique_roles
FNDA:1,_RNvNtCs22gWgzn6ZqV_31indextree_method_structural_nav8validitys_29validate_unique_roles_precalc
FNDA:1,_RNCNvNtCs22gWgzn6ZqV_31indextree_method_structural_nav8validity15real_tree_count0B5_
FNDA:1,_RNCNvNtCs22gWgzn6ZqV_31indextree_method_structural_nav8validity15real_tree_nodes0B5_
FNDA:1,_RNCNvNtCs22gWgzn6ZqV_31indextree_method_structural_nav8validity9real_data0B5_
FNDA:1,_RNCNvNtCs22gWgzn6ZqV_31indextree_method_structural_nav8validity9real_tree0B5_
FNF:13
FNH:13
DA:14,14
DA:15,14
DA:16,1
DA:17,1
DA:18,1
DA:19,14
DA:20,14
DA:21,14
DA:22,14
DA:23,1
DA:24,1
DA:26,14
DA:27,7
DA:28,7
DA:29,7
DA:30,1
DA:31,1
DA:32,1
DA:33,1
DA:34,7
DA:35,7
DA:36,7
DA:37,7
DA:38,1
DA:39,1
DA:40,1
DA:41,1
DA:42,7
DA:47,3
DA:48,3
DA:49,3
DA:50,3
DA:51,3
DA:52,3
DA:53,3
DA:54,0
DA:55,0
DA:56,0
DA:57,0
DA:60,3
DA:61,3
DA:62,3
DA:63,0
DA:64,0
DA:65,0
DA:66,0
DA:69,3
DA:70,3
DA:71,3
DA:72,0
DA:73,0
DA:74,0
DA:75,0
DA:78,3
DA:85,1
DA:86,1
DA:87,1
DA:88,1
DA:89,1
DA:90,1
DA:91,1
DA:92,1
DA:93,1
DA:96,0
DA:97,0
DA:98,0
DA:99,0
DA:102,1
DA:105,0
DA:106,0
DA:107,0
DA:108,0
DA:111,1
DA:121,1
DA:122,1
DA:123,1
DA:124,130
DA:125,130
DA:126,130
DA:127,130
DA:128,130
DA:129,130
DA:130,130
DA:131,130
DA:132,130
DA:133,130
DA:136,0
DA:137,0
DA:138,0
DA:139,0
DA:142,130
DA:145,0
DA:146,0
DA:147,0
DA:148,0
DA:151,130
DA:154,0
DA:155,0
DA:156,0
DA:157,0
DA:160,130
DA:163,0
DA:164,0
DA:165,0
DA:166,0
DA:169,130
DA:172,0
DA:173,0
DA:174,0
DA:175,0
DA:178,130
DA:181,0
DA:182,0
DA:183,0
DA:184,0
DA:188,1
DA:191,1
DA:192,1
DA:193,1
DA:194,130
DA:195,130
DA:196,130
DA:197,130
DA:198,130
DA:199,130
DA:202,0
DA:203,0
DA:204,0
DA:205,0
DA:208,130
DA:211,0
DA:212,0
DA:213,0
DA:214,0
DA:218,1
DA:221,1
DA:222,1
DA:223,1
DA:224,130
DA:225,130
DA:226,130
DA:227,130
DA:228,130
DA:229,130
DA:230,130
DA:231,130
DA:232,130
DA:233,130
DA:236,0
DA:237,0
DA:238,0
DA:239,0
DA:243,130
DA:246,0
DA:247,0
DA:248,0
DA:249,0
DA:253,130
DA:256,0
DA:257,0
DA:258,0
DA:259,0
DA:263,130
DA:266,0
DA:267,0
DA:268,0
DA:269,0
DA:273,130
DA:276,0
DA:277,0
DA:278,0
DA:279,0
DA:283,130
DA:286,0
DA:287,0
DA:288,0
DA:289,0
DA:294,1
BRF:0
BRH:0
LF:181
LH:105
end_of_record